ARM GAS  /tmp/ccCtzt8r.s 			page 1


   1              		.cpu cortex-m3
   2              		.eabi_attribute 20, 1
   3              		.eabi_attribute 21, 1
   4              		.eabi_attribute 23, 3
   5              		.eabi_attribute 24, 1
   6              		.eabi_attribute 25, 1
   7              		.eabi_attribute 26, 1
   8              		.eabi_attribute 30, 1
   9              		.eabi_attribute 34, 1
  10              		.eabi_attribute 18, 4
  11              		.file	"stm32f1xx_hal_msp.c"
  12              		.text
  13              	.Ltext0:
  14              		.cfi_sections	.debug_frame
  15              		.section	.text.HAL_MspInit,"ax",%progbits
  16              		.align	1
  17              		.global	HAL_MspInit
  18              		.arch armv7-m
  19              		.syntax unified
  20              		.thumb
  21              		.thumb_func
  22              		.fpu softvfp
  24              	HAL_MspInit:
  25              	.LFB65:
  26              		.file 1 "Core/Src/stm32f1xx_hal_msp.c"
   1:Core/Src/stm32f1xx_hal_msp.c **** /* USER CODE BEGIN Header */
   2:Core/Src/stm32f1xx_hal_msp.c **** /**
   3:Core/Src/stm32f1xx_hal_msp.c ****   ******************************************************************************
   4:Core/Src/stm32f1xx_hal_msp.c ****   * @file         stm32f1xx_hal_msp.c
   5:Core/Src/stm32f1xx_hal_msp.c ****   * @brief        This file provides code for the MSP Initialization
   6:Core/Src/stm32f1xx_hal_msp.c ****   *               and de-Initialization codes.
   7:Core/Src/stm32f1xx_hal_msp.c ****   ******************************************************************************
   8:Core/Src/stm32f1xx_hal_msp.c ****   * @attention
   9:Core/Src/stm32f1xx_hal_msp.c ****   *
  10:Core/Src/stm32f1xx_hal_msp.c ****   * Copyright (c) 2022 STMicroelectronics.
  11:Core/Src/stm32f1xx_hal_msp.c ****   * All rights reserved.
  12:Core/Src/stm32f1xx_hal_msp.c ****   *
  13:Core/Src/stm32f1xx_hal_msp.c ****   * This software is licensed under terms that can be found in the LICENSE file
  14:Core/Src/stm32f1xx_hal_msp.c ****   * in the root directory of this software component.
  15:Core/Src/stm32f1xx_hal_msp.c ****   * If no LICENSE file comes with this software, it is provided AS-IS.
  16:Core/Src/stm32f1xx_hal_msp.c ****   *
  17:Core/Src/stm32f1xx_hal_msp.c ****   ******************************************************************************
  18:Core/Src/stm32f1xx_hal_msp.c ****   */
  19:Core/Src/stm32f1xx_hal_msp.c **** /* USER CODE END Header */
  20:Core/Src/stm32f1xx_hal_msp.c **** 
  21:Core/Src/stm32f1xx_hal_msp.c **** /* Includes ------------------------------------------------------------------*/
  22:Core/Src/stm32f1xx_hal_msp.c **** #include "main.h"
  23:Core/Src/stm32f1xx_hal_msp.c **** /* USER CODE BEGIN Includes */
  24:Core/Src/stm32f1xx_hal_msp.c **** 
  25:Core/Src/stm32f1xx_hal_msp.c **** /* USER CODE END Includes */
  26:Core/Src/stm32f1xx_hal_msp.c **** 
  27:Core/Src/stm32f1xx_hal_msp.c **** /* Private typedef -----------------------------------------------------------*/
  28:Core/Src/stm32f1xx_hal_msp.c **** /* USER CODE BEGIN TD */
  29:Core/Src/stm32f1xx_hal_msp.c **** 
  30:Core/Src/stm32f1xx_hal_msp.c **** /* USER CODE END TD */
  31:Core/Src/stm32f1xx_hal_msp.c **** 
  32:Core/Src/stm32f1xx_hal_msp.c **** /* Private define ------------------------------------------------------------*/
ARM GAS  /tmp/ccCtzt8r.s 			page 2


  33:Core/Src/stm32f1xx_hal_msp.c **** /* USER CODE BEGIN Define */
  34:Core/Src/stm32f1xx_hal_msp.c **** 
  35:Core/Src/stm32f1xx_hal_msp.c **** /* USER CODE END Define */
  36:Core/Src/stm32f1xx_hal_msp.c **** 
  37:Core/Src/stm32f1xx_hal_msp.c **** /* Private macro -------------------------------------------------------------*/
  38:Core/Src/stm32f1xx_hal_msp.c **** /* USER CODE BEGIN Macro */
  39:Core/Src/stm32f1xx_hal_msp.c **** 
  40:Core/Src/stm32f1xx_hal_msp.c **** /* USER CODE END Macro */
  41:Core/Src/stm32f1xx_hal_msp.c **** 
  42:Core/Src/stm32f1xx_hal_msp.c **** /* Private variables ---------------------------------------------------------*/
  43:Core/Src/stm32f1xx_hal_msp.c **** /* USER CODE BEGIN PV */
  44:Core/Src/stm32f1xx_hal_msp.c **** 
  45:Core/Src/stm32f1xx_hal_msp.c **** /* USER CODE END PV */
  46:Core/Src/stm32f1xx_hal_msp.c **** 
  47:Core/Src/stm32f1xx_hal_msp.c **** /* Private function prototypes -----------------------------------------------*/
  48:Core/Src/stm32f1xx_hal_msp.c **** /* USER CODE BEGIN PFP */
  49:Core/Src/stm32f1xx_hal_msp.c **** 
  50:Core/Src/stm32f1xx_hal_msp.c **** /* USER CODE END PFP */
  51:Core/Src/stm32f1xx_hal_msp.c **** 
  52:Core/Src/stm32f1xx_hal_msp.c **** /* External functions --------------------------------------------------------*/
  53:Core/Src/stm32f1xx_hal_msp.c **** /* USER CODE BEGIN ExternalFunctions */
  54:Core/Src/stm32f1xx_hal_msp.c **** 
  55:Core/Src/stm32f1xx_hal_msp.c **** /* USER CODE END ExternalFunctions */
  56:Core/Src/stm32f1xx_hal_msp.c **** 
  57:Core/Src/stm32f1xx_hal_msp.c **** /* USER CODE BEGIN 0 */
  58:Core/Src/stm32f1xx_hal_msp.c **** 
  59:Core/Src/stm32f1xx_hal_msp.c **** /* USER CODE END 0 */
  60:Core/Src/stm32f1xx_hal_msp.c **** /**
  61:Core/Src/stm32f1xx_hal_msp.c ****   * Initializes the Global MSP.
  62:Core/Src/stm32f1xx_hal_msp.c ****   */
  63:Core/Src/stm32f1xx_hal_msp.c **** void HAL_MspInit(void)
  64:Core/Src/stm32f1xx_hal_msp.c **** {
  27              		.loc 1 64 1 view -0
  28              		.cfi_startproc
  29              		@ args = 0, pretend = 0, frame = 8
  30              		@ frame_needed = 0, uses_anonymous_args = 0
  31              		@ link register save eliminated.
  32 0000 82B0     		sub	sp, sp, #8
  33              	.LCFI0:
  34              		.cfi_def_cfa_offset 8
  65:Core/Src/stm32f1xx_hal_msp.c ****   /* USER CODE BEGIN MspInit 0 */
  66:Core/Src/stm32f1xx_hal_msp.c **** 
  67:Core/Src/stm32f1xx_hal_msp.c ****   /* USER CODE END MspInit 0 */
  68:Core/Src/stm32f1xx_hal_msp.c **** 
  69:Core/Src/stm32f1xx_hal_msp.c ****   __HAL_RCC_AFIO_CLK_ENABLE();
  35              		.loc 1 69 3 view .LVU1
  36              	.LBB2:
  37              		.loc 1 69 3 view .LVU2
  38              		.loc 1 69 3 view .LVU3
  39 0002 0A4B     		ldr	r3, .L3
  40 0004 9A69     		ldr	r2, [r3, #24]
  41 0006 42F00102 		orr	r2, r2, #1
  42 000a 9A61     		str	r2, [r3, #24]
  43              		.loc 1 69 3 view .LVU4
  44 000c 9A69     		ldr	r2, [r3, #24]
  45 000e 02F00102 		and	r2, r2, #1
  46 0012 0092     		str	r2, [sp]
ARM GAS  /tmp/ccCtzt8r.s 			page 3


  47              		.loc 1 69 3 view .LVU5
  48 0014 009A     		ldr	r2, [sp]
  49              	.LBE2:
  50              		.loc 1 69 3 view .LVU6
  70:Core/Src/stm32f1xx_hal_msp.c ****   __HAL_RCC_PWR_CLK_ENABLE();
  51              		.loc 1 70 3 view .LVU7
  52              	.LBB3:
  53              		.loc 1 70 3 view .LVU8
  54              		.loc 1 70 3 view .LVU9
  55 0016 DA69     		ldr	r2, [r3, #28]
  56 0018 42F08052 		orr	r2, r2, #268435456
  57 001c DA61     		str	r2, [r3, #28]
  58              		.loc 1 70 3 view .LVU10
  59 001e DB69     		ldr	r3, [r3, #28]
  60 0020 03F08053 		and	r3, r3, #268435456
  61 0024 0193     		str	r3, [sp, #4]
  62              		.loc 1 70 3 view .LVU11
  63 0026 019B     		ldr	r3, [sp, #4]
  64              	.LBE3:
  65              		.loc 1 70 3 view .LVU12
  71:Core/Src/stm32f1xx_hal_msp.c **** 
  72:Core/Src/stm32f1xx_hal_msp.c ****   /* System interrupt init*/
  73:Core/Src/stm32f1xx_hal_msp.c **** 
  74:Core/Src/stm32f1xx_hal_msp.c ****   /* USER CODE BEGIN MspInit 1 */
  75:Core/Src/stm32f1xx_hal_msp.c **** 
  76:Core/Src/stm32f1xx_hal_msp.c ****   /* USER CODE END MspInit 1 */
  77:Core/Src/stm32f1xx_hal_msp.c **** }
  66              		.loc 1 77 1 is_stmt 0 view .LVU13
  67 0028 02B0     		add	sp, sp, #8
  68              	.LCFI1:
  69              		.cfi_def_cfa_offset 0
  70              		@ sp needed
  71 002a 7047     		bx	lr
  72              	.L4:
  73              		.align	2
  74              	.L3:
  75 002c 00100240 		.word	1073876992
  76              		.cfi_endproc
  77              	.LFE65:
  79              		.section	.text.HAL_ADC_MspInit,"ax",%progbits
  80              		.align	1
  81              		.global	HAL_ADC_MspInit
  82              		.syntax unified
  83              		.thumb
  84              		.thumb_func
  85              		.fpu softvfp
  87              	HAL_ADC_MspInit:
  88              	.LVL0:
  89              	.LFB66:
  78:Core/Src/stm32f1xx_hal_msp.c **** 
  79:Core/Src/stm32f1xx_hal_msp.c **** /**
  80:Core/Src/stm32f1xx_hal_msp.c **** * @brief ADC MSP Initialization
  81:Core/Src/stm32f1xx_hal_msp.c **** * This function configures the hardware resources used in this example
  82:Core/Src/stm32f1xx_hal_msp.c **** * @param hadc: ADC handle pointer
  83:Core/Src/stm32f1xx_hal_msp.c **** * @retval None
  84:Core/Src/stm32f1xx_hal_msp.c **** */
  85:Core/Src/stm32f1xx_hal_msp.c **** void HAL_ADC_MspInit(ADC_HandleTypeDef* hadc)
ARM GAS  /tmp/ccCtzt8r.s 			page 4


  86:Core/Src/stm32f1xx_hal_msp.c **** {
  90              		.loc 1 86 1 is_stmt 1 view -0
  91              		.cfi_startproc
  92              		@ args = 0, pretend = 0, frame = 24
  93              		@ frame_needed = 0, uses_anonymous_args = 0
  94              		.loc 1 86 1 is_stmt 0 view .LVU15
  95 0000 00B5     		push	{lr}
  96              	.LCFI2:
  97              		.cfi_def_cfa_offset 4
  98              		.cfi_offset 14, -4
  99 0002 87B0     		sub	sp, sp, #28
 100              	.LCFI3:
 101              		.cfi_def_cfa_offset 32
  87:Core/Src/stm32f1xx_hal_msp.c ****   GPIO_InitTypeDef GPIO_InitStruct = {0};
 102              		.loc 1 87 3 is_stmt 1 view .LVU16
 103              		.loc 1 87 20 is_stmt 0 view .LVU17
 104 0004 0023     		movs	r3, #0
 105 0006 0293     		str	r3, [sp, #8]
 106 0008 0393     		str	r3, [sp, #12]
 107 000a 0493     		str	r3, [sp, #16]
 108 000c 0593     		str	r3, [sp, #20]
  88:Core/Src/stm32f1xx_hal_msp.c ****   if(hadc->Instance==ADC1)
 109              		.loc 1 88 3 is_stmt 1 view .LVU18
 110              		.loc 1 88 10 is_stmt 0 view .LVU19
 111 000e 0268     		ldr	r2, [r0]
 112              		.loc 1 88 5 view .LVU20
 113 0010 114B     		ldr	r3, .L9
 114 0012 9A42     		cmp	r2, r3
 115 0014 02D0     		beq	.L8
 116              	.LVL1:
 117              	.L5:
  89:Core/Src/stm32f1xx_hal_msp.c ****   {
  90:Core/Src/stm32f1xx_hal_msp.c ****   /* USER CODE BEGIN ADC1_MspInit 0 */
  91:Core/Src/stm32f1xx_hal_msp.c **** 
  92:Core/Src/stm32f1xx_hal_msp.c ****   /* USER CODE END ADC1_MspInit 0 */
  93:Core/Src/stm32f1xx_hal_msp.c ****     /* Peripheral clock enable */
  94:Core/Src/stm32f1xx_hal_msp.c ****     __HAL_RCC_ADC1_CLK_ENABLE();
  95:Core/Src/stm32f1xx_hal_msp.c **** 
  96:Core/Src/stm32f1xx_hal_msp.c ****     __HAL_RCC_GPIOA_CLK_ENABLE();
  97:Core/Src/stm32f1xx_hal_msp.c ****     /**ADC1 GPIO Configuration
  98:Core/Src/stm32f1xx_hal_msp.c ****     PA0-WKUP     ------> ADC1_IN0
  99:Core/Src/stm32f1xx_hal_msp.c ****     */
 100:Core/Src/stm32f1xx_hal_msp.c ****     GPIO_InitStruct.Pin = GPIO_PIN_0;
 101:Core/Src/stm32f1xx_hal_msp.c ****     GPIO_InitStruct.Mode = GPIO_MODE_ANALOG;
 102:Core/Src/stm32f1xx_hal_msp.c ****     HAL_GPIO_Init(GPIOA, &GPIO_InitStruct);
 103:Core/Src/stm32f1xx_hal_msp.c **** 
 104:Core/Src/stm32f1xx_hal_msp.c ****   /* USER CODE BEGIN ADC1_MspInit 1 */
 105:Core/Src/stm32f1xx_hal_msp.c **** 
 106:Core/Src/stm32f1xx_hal_msp.c ****   /* USER CODE END ADC1_MspInit 1 */
 107:Core/Src/stm32f1xx_hal_msp.c ****   }
 108:Core/Src/stm32f1xx_hal_msp.c **** 
 109:Core/Src/stm32f1xx_hal_msp.c **** }
 118              		.loc 1 109 1 view .LVU21
 119 0016 07B0     		add	sp, sp, #28
 120              	.LCFI4:
 121              		.cfi_remember_state
 122              		.cfi_def_cfa_offset 4
ARM GAS  /tmp/ccCtzt8r.s 			page 5


 123              		@ sp needed
 124 0018 5DF804FB 		ldr	pc, [sp], #4
 125              	.LVL2:
 126              	.L8:
 127              	.LCFI5:
 128              		.cfi_restore_state
  94:Core/Src/stm32f1xx_hal_msp.c **** 
 129              		.loc 1 94 5 is_stmt 1 view .LVU22
 130              	.LBB4:
  94:Core/Src/stm32f1xx_hal_msp.c **** 
 131              		.loc 1 94 5 view .LVU23
  94:Core/Src/stm32f1xx_hal_msp.c **** 
 132              		.loc 1 94 5 view .LVU24
 133 001c 03F56C43 		add	r3, r3, #60416
 134 0020 9A69     		ldr	r2, [r3, #24]
 135 0022 42F40072 		orr	r2, r2, #512
 136 0026 9A61     		str	r2, [r3, #24]
  94:Core/Src/stm32f1xx_hal_msp.c **** 
 137              		.loc 1 94 5 view .LVU25
 138 0028 9A69     		ldr	r2, [r3, #24]
 139 002a 02F40072 		and	r2, r2, #512
 140 002e 0092     		str	r2, [sp]
  94:Core/Src/stm32f1xx_hal_msp.c **** 
 141              		.loc 1 94 5 view .LVU26
 142 0030 009A     		ldr	r2, [sp]
 143              	.LBE4:
  94:Core/Src/stm32f1xx_hal_msp.c **** 
 144              		.loc 1 94 5 view .LVU27
  96:Core/Src/stm32f1xx_hal_msp.c ****     /**ADC1 GPIO Configuration
 145              		.loc 1 96 5 view .LVU28
 146              	.LBB5:
  96:Core/Src/stm32f1xx_hal_msp.c ****     /**ADC1 GPIO Configuration
 147              		.loc 1 96 5 view .LVU29
  96:Core/Src/stm32f1xx_hal_msp.c ****     /**ADC1 GPIO Configuration
 148              		.loc 1 96 5 view .LVU30
 149 0032 9A69     		ldr	r2, [r3, #24]
 150 0034 42F00402 		orr	r2, r2, #4
 151 0038 9A61     		str	r2, [r3, #24]
  96:Core/Src/stm32f1xx_hal_msp.c ****     /**ADC1 GPIO Configuration
 152              		.loc 1 96 5 view .LVU31
 153 003a 9B69     		ldr	r3, [r3, #24]
 154 003c 03F00403 		and	r3, r3, #4
 155 0040 0193     		str	r3, [sp, #4]
  96:Core/Src/stm32f1xx_hal_msp.c ****     /**ADC1 GPIO Configuration
 156              		.loc 1 96 5 view .LVU32
 157 0042 019B     		ldr	r3, [sp, #4]
 158              	.LBE5:
  96:Core/Src/stm32f1xx_hal_msp.c ****     /**ADC1 GPIO Configuration
 159              		.loc 1 96 5 view .LVU33
 100:Core/Src/stm32f1xx_hal_msp.c ****     GPIO_InitStruct.Mode = GPIO_MODE_ANALOG;
 160              		.loc 1 100 5 view .LVU34
 100:Core/Src/stm32f1xx_hal_msp.c ****     GPIO_InitStruct.Mode = GPIO_MODE_ANALOG;
 161              		.loc 1 100 25 is_stmt 0 view .LVU35
 162 0044 0123     		movs	r3, #1
 163 0046 0293     		str	r3, [sp, #8]
 101:Core/Src/stm32f1xx_hal_msp.c ****     HAL_GPIO_Init(GPIOA, &GPIO_InitStruct);
 164              		.loc 1 101 5 is_stmt 1 view .LVU36
ARM GAS  /tmp/ccCtzt8r.s 			page 6


 101:Core/Src/stm32f1xx_hal_msp.c ****     HAL_GPIO_Init(GPIOA, &GPIO_InitStruct);
 165              		.loc 1 101 26 is_stmt 0 view .LVU37
 166 0048 0323     		movs	r3, #3
 167 004a 0393     		str	r3, [sp, #12]
 102:Core/Src/stm32f1xx_hal_msp.c **** 
 168              		.loc 1 102 5 is_stmt 1 view .LVU38
 169 004c 02A9     		add	r1, sp, #8
 170 004e 0348     		ldr	r0, .L9+4
 171              	.LVL3:
 102:Core/Src/stm32f1xx_hal_msp.c **** 
 172              		.loc 1 102 5 is_stmt 0 view .LVU39
 173 0050 FFF7FEFF 		bl	HAL_GPIO_Init
 174              	.LVL4:
 175              		.loc 1 109 1 view .LVU40
 176 0054 DFE7     		b	.L5
 177              	.L10:
 178 0056 00BF     		.align	2
 179              	.L9:
 180 0058 00240140 		.word	1073816576
 181 005c 00080140 		.word	1073809408
 182              		.cfi_endproc
 183              	.LFE66:
 185              		.section	.text.HAL_ADC_MspDeInit,"ax",%progbits
 186              		.align	1
 187              		.global	HAL_ADC_MspDeInit
 188              		.syntax unified
 189              		.thumb
 190              		.thumb_func
 191              		.fpu softvfp
 193              	HAL_ADC_MspDeInit:
 194              	.LVL5:
 195              	.LFB67:
 110:Core/Src/stm32f1xx_hal_msp.c **** 
 111:Core/Src/stm32f1xx_hal_msp.c **** /**
 112:Core/Src/stm32f1xx_hal_msp.c **** * @brief ADC MSP De-Initialization
 113:Core/Src/stm32f1xx_hal_msp.c **** * This function freeze the hardware resources used in this example
 114:Core/Src/stm32f1xx_hal_msp.c **** * @param hadc: ADC handle pointer
 115:Core/Src/stm32f1xx_hal_msp.c **** * @retval None
 116:Core/Src/stm32f1xx_hal_msp.c **** */
 117:Core/Src/stm32f1xx_hal_msp.c **** void HAL_ADC_MspDeInit(ADC_HandleTypeDef* hadc)
 118:Core/Src/stm32f1xx_hal_msp.c **** {
 196              		.loc 1 118 1 is_stmt 1 view -0
 197              		.cfi_startproc
 198              		@ args = 0, pretend = 0, frame = 0
 199              		@ frame_needed = 0, uses_anonymous_args = 0
 200              		.loc 1 118 1 is_stmt 0 view .LVU42
 201 0000 08B5     		push	{r3, lr}
 202              	.LCFI6:
 203              		.cfi_def_cfa_offset 8
 204              		.cfi_offset 3, -8
 205              		.cfi_offset 14, -4
 119:Core/Src/stm32f1xx_hal_msp.c ****   if(hadc->Instance==ADC1)
 206              		.loc 1 119 3 is_stmt 1 view .LVU43
 207              		.loc 1 119 10 is_stmt 0 view .LVU44
 208 0002 0268     		ldr	r2, [r0]
 209              		.loc 1 119 5 view .LVU45
 210 0004 064B     		ldr	r3, .L15
ARM GAS  /tmp/ccCtzt8r.s 			page 7


 211 0006 9A42     		cmp	r2, r3
 212 0008 00D0     		beq	.L14
 213              	.LVL6:
 214              	.L11:
 120:Core/Src/stm32f1xx_hal_msp.c ****   {
 121:Core/Src/stm32f1xx_hal_msp.c ****   /* USER CODE BEGIN ADC1_MspDeInit 0 */
 122:Core/Src/stm32f1xx_hal_msp.c **** 
 123:Core/Src/stm32f1xx_hal_msp.c ****   /* USER CODE END ADC1_MspDeInit 0 */
 124:Core/Src/stm32f1xx_hal_msp.c ****     /* Peripheral clock disable */
 125:Core/Src/stm32f1xx_hal_msp.c ****     __HAL_RCC_ADC1_CLK_DISABLE();
 126:Core/Src/stm32f1xx_hal_msp.c **** 
 127:Core/Src/stm32f1xx_hal_msp.c ****     /**ADC1 GPIO Configuration
 128:Core/Src/stm32f1xx_hal_msp.c ****     PA0-WKUP     ------> ADC1_IN0
 129:Core/Src/stm32f1xx_hal_msp.c ****     */
 130:Core/Src/stm32f1xx_hal_msp.c ****     HAL_GPIO_DeInit(GPIOA, GPIO_PIN_0);
 131:Core/Src/stm32f1xx_hal_msp.c **** 
 132:Core/Src/stm32f1xx_hal_msp.c ****   /* USER CODE BEGIN ADC1_MspDeInit 1 */
 133:Core/Src/stm32f1xx_hal_msp.c **** 
 134:Core/Src/stm32f1xx_hal_msp.c ****   /* USER CODE END ADC1_MspDeInit 1 */
 135:Core/Src/stm32f1xx_hal_msp.c ****   }
 136:Core/Src/stm32f1xx_hal_msp.c **** 
 137:Core/Src/stm32f1xx_hal_msp.c **** }
 215              		.loc 1 137 1 view .LVU46
 216 000a 08BD     		pop	{r3, pc}
 217              	.LVL7:
 218              	.L14:
 125:Core/Src/stm32f1xx_hal_msp.c **** 
 219              		.loc 1 125 5 is_stmt 1 view .LVU47
 220 000c 054A     		ldr	r2, .L15+4
 221 000e 9369     		ldr	r3, [r2, #24]
 222 0010 23F40073 		bic	r3, r3, #512
 223 0014 9361     		str	r3, [r2, #24]
 130:Core/Src/stm32f1xx_hal_msp.c **** 
 224              		.loc 1 130 5 view .LVU48
 225 0016 0121     		movs	r1, #1
 226 0018 0348     		ldr	r0, .L15+8
 227              	.LVL8:
 130:Core/Src/stm32f1xx_hal_msp.c **** 
 228              		.loc 1 130 5 is_stmt 0 view .LVU49
 229 001a FFF7FEFF 		bl	HAL_GPIO_DeInit
 230              	.LVL9:
 231              		.loc 1 137 1 view .LVU50
 232 001e F4E7     		b	.L11
 233              	.L16:
 234              		.align	2
 235              	.L15:
 236 0020 00240140 		.word	1073816576
 237 0024 00100240 		.word	1073876992
 238 0028 00080140 		.word	1073809408
 239              		.cfi_endproc
 240              	.LFE67:
 242              		.section	.text.HAL_I2C_MspInit,"ax",%progbits
 243              		.align	1
 244              		.global	HAL_I2C_MspInit
 245              		.syntax unified
 246              		.thumb
 247              		.thumb_func
ARM GAS  /tmp/ccCtzt8r.s 			page 8


 248              		.fpu softvfp
 250              	HAL_I2C_MspInit:
 251              	.LVL10:
 252              	.LFB68:
 138:Core/Src/stm32f1xx_hal_msp.c **** 
 139:Core/Src/stm32f1xx_hal_msp.c **** /**
 140:Core/Src/stm32f1xx_hal_msp.c **** * @brief I2C MSP Initialization
 141:Core/Src/stm32f1xx_hal_msp.c **** * This function configures the hardware resources used in this example
 142:Core/Src/stm32f1xx_hal_msp.c **** * @param hi2c: I2C handle pointer
 143:Core/Src/stm32f1xx_hal_msp.c **** * @retval None
 144:Core/Src/stm32f1xx_hal_msp.c **** */
 145:Core/Src/stm32f1xx_hal_msp.c **** void HAL_I2C_MspInit(I2C_HandleTypeDef* hi2c)
 146:Core/Src/stm32f1xx_hal_msp.c **** {
 253              		.loc 1 146 1 is_stmt 1 view -0
 254              		.cfi_startproc
 255              		@ args = 0, pretend = 0, frame = 24
 256              		@ frame_needed = 0, uses_anonymous_args = 0
 257              		.loc 1 146 1 is_stmt 0 view .LVU52
 258 0000 10B5     		push	{r4, lr}
 259              	.LCFI7:
 260              		.cfi_def_cfa_offset 8
 261              		.cfi_offset 4, -8
 262              		.cfi_offset 14, -4
 263 0002 86B0     		sub	sp, sp, #24
 264              	.LCFI8:
 265              		.cfi_def_cfa_offset 32
 147:Core/Src/stm32f1xx_hal_msp.c ****   GPIO_InitTypeDef GPIO_InitStruct = {0};
 266              		.loc 1 147 3 is_stmt 1 view .LVU53
 267              		.loc 1 147 20 is_stmt 0 view .LVU54
 268 0004 0023     		movs	r3, #0
 269 0006 0293     		str	r3, [sp, #8]
 270 0008 0393     		str	r3, [sp, #12]
 271 000a 0493     		str	r3, [sp, #16]
 272 000c 0593     		str	r3, [sp, #20]
 148:Core/Src/stm32f1xx_hal_msp.c ****   if(hi2c->Instance==I2C2)
 273              		.loc 1 148 3 is_stmt 1 view .LVU55
 274              		.loc 1 148 10 is_stmt 0 view .LVU56
 275 000e 0268     		ldr	r2, [r0]
 276              		.loc 1 148 5 view .LVU57
 277 0010 114B     		ldr	r3, .L21
 278 0012 9A42     		cmp	r2, r3
 279 0014 01D0     		beq	.L20
 280              	.LVL11:
 281              	.L17:
 149:Core/Src/stm32f1xx_hal_msp.c ****   {
 150:Core/Src/stm32f1xx_hal_msp.c ****   /* USER CODE BEGIN I2C2_MspInit 0 */
 151:Core/Src/stm32f1xx_hal_msp.c **** 
 152:Core/Src/stm32f1xx_hal_msp.c ****   /* USER CODE END I2C2_MspInit 0 */
 153:Core/Src/stm32f1xx_hal_msp.c **** 
 154:Core/Src/stm32f1xx_hal_msp.c ****     __HAL_RCC_GPIOB_CLK_ENABLE();
 155:Core/Src/stm32f1xx_hal_msp.c ****     /**I2C2 GPIO Configuration
 156:Core/Src/stm32f1xx_hal_msp.c ****     PB10     ------> I2C2_SCL
 157:Core/Src/stm32f1xx_hal_msp.c ****     PB11     ------> I2C2_SDA
 158:Core/Src/stm32f1xx_hal_msp.c ****     */
 159:Core/Src/stm32f1xx_hal_msp.c ****     GPIO_InitStruct.Pin = GPIO_PIN_10|GPIO_PIN_11;
 160:Core/Src/stm32f1xx_hal_msp.c ****     GPIO_InitStruct.Mode = GPIO_MODE_AF_OD;
 161:Core/Src/stm32f1xx_hal_msp.c ****     GPIO_InitStruct.Speed = GPIO_SPEED_FREQ_HIGH;
ARM GAS  /tmp/ccCtzt8r.s 			page 9


 162:Core/Src/stm32f1xx_hal_msp.c ****     HAL_GPIO_Init(GPIOB, &GPIO_InitStruct);
 163:Core/Src/stm32f1xx_hal_msp.c **** 
 164:Core/Src/stm32f1xx_hal_msp.c ****     /* Peripheral clock enable */
 165:Core/Src/stm32f1xx_hal_msp.c ****     __HAL_RCC_I2C2_CLK_ENABLE();
 166:Core/Src/stm32f1xx_hal_msp.c ****   /* USER CODE BEGIN I2C2_MspInit 1 */
 167:Core/Src/stm32f1xx_hal_msp.c **** 
 168:Core/Src/stm32f1xx_hal_msp.c ****   /* USER CODE END I2C2_MspInit 1 */
 169:Core/Src/stm32f1xx_hal_msp.c ****   }
 170:Core/Src/stm32f1xx_hal_msp.c **** 
 171:Core/Src/stm32f1xx_hal_msp.c **** }
 282              		.loc 1 171 1 view .LVU58
 283 0016 06B0     		add	sp, sp, #24
 284              	.LCFI9:
 285              		.cfi_remember_state
 286              		.cfi_def_cfa_offset 8
 287              		@ sp needed
 288 0018 10BD     		pop	{r4, pc}
 289              	.LVL12:
 290              	.L20:
 291              	.LCFI10:
 292              		.cfi_restore_state
 154:Core/Src/stm32f1xx_hal_msp.c ****     /**I2C2 GPIO Configuration
 293              		.loc 1 154 5 is_stmt 1 view .LVU59
 294              	.LBB6:
 154:Core/Src/stm32f1xx_hal_msp.c ****     /**I2C2 GPIO Configuration
 295              		.loc 1 154 5 view .LVU60
 154:Core/Src/stm32f1xx_hal_msp.c ****     /**I2C2 GPIO Configuration
 296              		.loc 1 154 5 view .LVU61
 297 001a 104C     		ldr	r4, .L21+4
 298 001c A369     		ldr	r3, [r4, #24]
 299 001e 43F00803 		orr	r3, r3, #8
 300 0022 A361     		str	r3, [r4, #24]
 154:Core/Src/stm32f1xx_hal_msp.c ****     /**I2C2 GPIO Configuration
 301              		.loc 1 154 5 view .LVU62
 302 0024 A369     		ldr	r3, [r4, #24]
 303 0026 03F00803 		and	r3, r3, #8
 304 002a 0093     		str	r3, [sp]
 154:Core/Src/stm32f1xx_hal_msp.c ****     /**I2C2 GPIO Configuration
 305              		.loc 1 154 5 view .LVU63
 306 002c 009B     		ldr	r3, [sp]
 307              	.LBE6:
 154:Core/Src/stm32f1xx_hal_msp.c ****     /**I2C2 GPIO Configuration
 308              		.loc 1 154 5 view .LVU64
 159:Core/Src/stm32f1xx_hal_msp.c ****     GPIO_InitStruct.Mode = GPIO_MODE_AF_OD;
 309              		.loc 1 159 5 view .LVU65
 159:Core/Src/stm32f1xx_hal_msp.c ****     GPIO_InitStruct.Mode = GPIO_MODE_AF_OD;
 310              		.loc 1 159 25 is_stmt 0 view .LVU66
 311 002e 4FF44063 		mov	r3, #3072
 312 0032 0293     		str	r3, [sp, #8]
 160:Core/Src/stm32f1xx_hal_msp.c ****     GPIO_InitStruct.Speed = GPIO_SPEED_FREQ_HIGH;
 313              		.loc 1 160 5 is_stmt 1 view .LVU67
 160:Core/Src/stm32f1xx_hal_msp.c ****     GPIO_InitStruct.Speed = GPIO_SPEED_FREQ_HIGH;
 314              		.loc 1 160 26 is_stmt 0 view .LVU68
 315 0034 1223     		movs	r3, #18
 316 0036 0393     		str	r3, [sp, #12]
 161:Core/Src/stm32f1xx_hal_msp.c ****     HAL_GPIO_Init(GPIOB, &GPIO_InitStruct);
 317              		.loc 1 161 5 is_stmt 1 view .LVU69
ARM GAS  /tmp/ccCtzt8r.s 			page 10


 161:Core/Src/stm32f1xx_hal_msp.c ****     HAL_GPIO_Init(GPIOB, &GPIO_InitStruct);
 318              		.loc 1 161 27 is_stmt 0 view .LVU70
 319 0038 0323     		movs	r3, #3
 320 003a 0593     		str	r3, [sp, #20]
 162:Core/Src/stm32f1xx_hal_msp.c **** 
 321              		.loc 1 162 5 is_stmt 1 view .LVU71
 322 003c 02A9     		add	r1, sp, #8
 323 003e 0848     		ldr	r0, .L21+8
 324              	.LVL13:
 162:Core/Src/stm32f1xx_hal_msp.c **** 
 325              		.loc 1 162 5 is_stmt 0 view .LVU72
 326 0040 FFF7FEFF 		bl	HAL_GPIO_Init
 327              	.LVL14:
 165:Core/Src/stm32f1xx_hal_msp.c ****   /* USER CODE BEGIN I2C2_MspInit 1 */
 328              		.loc 1 165 5 is_stmt 1 view .LVU73
 329              	.LBB7:
 165:Core/Src/stm32f1xx_hal_msp.c ****   /* USER CODE BEGIN I2C2_MspInit 1 */
 330              		.loc 1 165 5 view .LVU74
 165:Core/Src/stm32f1xx_hal_msp.c ****   /* USER CODE BEGIN I2C2_MspInit 1 */
 331              		.loc 1 165 5 view .LVU75
 332 0044 E369     		ldr	r3, [r4, #28]
 333 0046 43F48003 		orr	r3, r3, #4194304
 334 004a E361     		str	r3, [r4, #28]
 165:Core/Src/stm32f1xx_hal_msp.c ****   /* USER CODE BEGIN I2C2_MspInit 1 */
 335              		.loc 1 165 5 view .LVU76
 336 004c E369     		ldr	r3, [r4, #28]
 337 004e 03F48003 		and	r3, r3, #4194304
 338 0052 0193     		str	r3, [sp, #4]
 165:Core/Src/stm32f1xx_hal_msp.c ****   /* USER CODE BEGIN I2C2_MspInit 1 */
 339              		.loc 1 165 5 view .LVU77
 340 0054 019B     		ldr	r3, [sp, #4]
 341              	.LBE7:
 165:Core/Src/stm32f1xx_hal_msp.c ****   /* USER CODE BEGIN I2C2_MspInit 1 */
 342              		.loc 1 165 5 view .LVU78
 343              		.loc 1 171 1 is_stmt 0 view .LVU79
 344 0056 DEE7     		b	.L17
 345              	.L22:
 346              		.align	2
 347              	.L21:
 348 0058 00580040 		.word	1073764352
 349 005c 00100240 		.word	1073876992
 350 0060 000C0140 		.word	1073810432
 351              		.cfi_endproc
 352              	.LFE68:
 354              		.section	.text.HAL_I2C_MspDeInit,"ax",%progbits
 355              		.align	1
 356              		.global	HAL_I2C_MspDeInit
 357              		.syntax unified
 358              		.thumb
 359              		.thumb_func
 360              		.fpu softvfp
 362              	HAL_I2C_MspDeInit:
 363              	.LVL15:
 364              	.LFB69:
 172:Core/Src/stm32f1xx_hal_msp.c **** 
 173:Core/Src/stm32f1xx_hal_msp.c **** /**
 174:Core/Src/stm32f1xx_hal_msp.c **** * @brief I2C MSP De-Initialization
ARM GAS  /tmp/ccCtzt8r.s 			page 11


 175:Core/Src/stm32f1xx_hal_msp.c **** * This function freeze the hardware resources used in this example
 176:Core/Src/stm32f1xx_hal_msp.c **** * @param hi2c: I2C handle pointer
 177:Core/Src/stm32f1xx_hal_msp.c **** * @retval None
 178:Core/Src/stm32f1xx_hal_msp.c **** */
 179:Core/Src/stm32f1xx_hal_msp.c **** void HAL_I2C_MspDeInit(I2C_HandleTypeDef* hi2c)
 180:Core/Src/stm32f1xx_hal_msp.c **** {
 365              		.loc 1 180 1 is_stmt 1 view -0
 366              		.cfi_startproc
 367              		@ args = 0, pretend = 0, frame = 0
 368              		@ frame_needed = 0, uses_anonymous_args = 0
 181:Core/Src/stm32f1xx_hal_msp.c ****   if(hi2c->Instance==I2C2)
 369              		.loc 1 181 3 view .LVU81
 370              		.loc 1 181 10 is_stmt 0 view .LVU82
 371 0000 0268     		ldr	r2, [r0]
 372              		.loc 1 181 5 view .LVU83
 373 0002 0B4B     		ldr	r3, .L30
 374 0004 9A42     		cmp	r2, r3
 375 0006 00D0     		beq	.L29
 376 0008 7047     		bx	lr
 377              	.L29:
 180:Core/Src/stm32f1xx_hal_msp.c ****   if(hi2c->Instance==I2C2)
 378              		.loc 1 180 1 view .LVU84
 379 000a 10B5     		push	{r4, lr}
 380              	.LCFI11:
 381              		.cfi_def_cfa_offset 8
 382              		.cfi_offset 4, -8
 383              		.cfi_offset 14, -4
 182:Core/Src/stm32f1xx_hal_msp.c ****   {
 183:Core/Src/stm32f1xx_hal_msp.c ****   /* USER CODE BEGIN I2C2_MspDeInit 0 */
 184:Core/Src/stm32f1xx_hal_msp.c **** 
 185:Core/Src/stm32f1xx_hal_msp.c ****   /* USER CODE END I2C2_MspDeInit 0 */
 186:Core/Src/stm32f1xx_hal_msp.c ****     /* Peripheral clock disable */
 187:Core/Src/stm32f1xx_hal_msp.c ****     __HAL_RCC_I2C2_CLK_DISABLE();
 384              		.loc 1 187 5 is_stmt 1 view .LVU85
 385 000c 094A     		ldr	r2, .L30+4
 386 000e D369     		ldr	r3, [r2, #28]
 387 0010 23F48003 		bic	r3, r3, #4194304
 388 0014 D361     		str	r3, [r2, #28]
 188:Core/Src/stm32f1xx_hal_msp.c **** 
 189:Core/Src/stm32f1xx_hal_msp.c ****     /**I2C2 GPIO Configuration
 190:Core/Src/stm32f1xx_hal_msp.c ****     PB10     ------> I2C2_SCL
 191:Core/Src/stm32f1xx_hal_msp.c ****     PB11     ------> I2C2_SDA
 192:Core/Src/stm32f1xx_hal_msp.c ****     */
 193:Core/Src/stm32f1xx_hal_msp.c ****     HAL_GPIO_DeInit(GPIOB, GPIO_PIN_10);
 389              		.loc 1 193 5 view .LVU86
 390 0016 084C     		ldr	r4, .L30+8
 391 0018 4FF48061 		mov	r1, #1024
 392 001c 2046     		mov	r0, r4
 393              	.LVL16:
 394              		.loc 1 193 5 is_stmt 0 view .LVU87
 395 001e FFF7FEFF 		bl	HAL_GPIO_DeInit
 396              	.LVL17:
 194:Core/Src/stm32f1xx_hal_msp.c **** 
 195:Core/Src/stm32f1xx_hal_msp.c ****     HAL_GPIO_DeInit(GPIOB, GPIO_PIN_11);
 397              		.loc 1 195 5 is_stmt 1 view .LVU88
 398 0022 4FF40061 		mov	r1, #2048
 399 0026 2046     		mov	r0, r4
ARM GAS  /tmp/ccCtzt8r.s 			page 12


 400 0028 FFF7FEFF 		bl	HAL_GPIO_DeInit
 401              	.LVL18:
 196:Core/Src/stm32f1xx_hal_msp.c **** 
 197:Core/Src/stm32f1xx_hal_msp.c ****   /* USER CODE BEGIN I2C2_MspDeInit 1 */
 198:Core/Src/stm32f1xx_hal_msp.c **** 
 199:Core/Src/stm32f1xx_hal_msp.c ****   /* USER CODE END I2C2_MspDeInit 1 */
 200:Core/Src/stm32f1xx_hal_msp.c ****   }
 201:Core/Src/stm32f1xx_hal_msp.c **** 
 202:Core/Src/stm32f1xx_hal_msp.c **** }
 402              		.loc 1 202 1 is_stmt 0 view .LVU89
 403 002c 10BD     		pop	{r4, pc}
 404              	.L31:
 405 002e 00BF     		.align	2
 406              	.L30:
 407 0030 00580040 		.word	1073764352
 408 0034 00100240 		.word	1073876992
 409 0038 000C0140 		.word	1073810432
 410              		.cfi_endproc
 411              	.LFE69:
 413              		.section	.text.HAL_SPI_MspInit,"ax",%progbits
 414              		.align	1
 415              		.global	HAL_SPI_MspInit
 416              		.syntax unified
 417              		.thumb
 418              		.thumb_func
 419              		.fpu softvfp
 421              	HAL_SPI_MspInit:
 422              	.LVL19:
 423              	.LFB70:
 203:Core/Src/stm32f1xx_hal_msp.c **** 
 204:Core/Src/stm32f1xx_hal_msp.c **** /**
 205:Core/Src/stm32f1xx_hal_msp.c **** * @brief SPI MSP Initialization
 206:Core/Src/stm32f1xx_hal_msp.c **** * This function configures the hardware resources used in this example
 207:Core/Src/stm32f1xx_hal_msp.c **** * @param hspi: SPI handle pointer
 208:Core/Src/stm32f1xx_hal_msp.c **** * @retval None
 209:Core/Src/stm32f1xx_hal_msp.c **** */
 210:Core/Src/stm32f1xx_hal_msp.c **** void HAL_SPI_MspInit(SPI_HandleTypeDef* hspi)
 211:Core/Src/stm32f1xx_hal_msp.c **** {
 424              		.loc 1 211 1 is_stmt 1 view -0
 425              		.cfi_startproc
 426              		@ args = 0, pretend = 0, frame = 24
 427              		@ frame_needed = 0, uses_anonymous_args = 0
 428              		.loc 1 211 1 is_stmt 0 view .LVU91
 429 0000 10B5     		push	{r4, lr}
 430              	.LCFI12:
 431              		.cfi_def_cfa_offset 8
 432              		.cfi_offset 4, -8
 433              		.cfi_offset 14, -4
 434 0002 86B0     		sub	sp, sp, #24
 435              	.LCFI13:
 436              		.cfi_def_cfa_offset 32
 212:Core/Src/stm32f1xx_hal_msp.c ****   GPIO_InitTypeDef GPIO_InitStruct = {0};
 437              		.loc 1 212 3 is_stmt 1 view .LVU92
 438              		.loc 1 212 20 is_stmt 0 view .LVU93
 439 0004 0023     		movs	r3, #0
 440 0006 0293     		str	r3, [sp, #8]
 441 0008 0393     		str	r3, [sp, #12]
ARM GAS  /tmp/ccCtzt8r.s 			page 13


 442 000a 0493     		str	r3, [sp, #16]
 443 000c 0593     		str	r3, [sp, #20]
 213:Core/Src/stm32f1xx_hal_msp.c ****   if(hspi->Instance==SPI1)
 444              		.loc 1 213 3 is_stmt 1 view .LVU94
 445              		.loc 1 213 10 is_stmt 0 view .LVU95
 446 000e 0268     		ldr	r2, [r0]
 447              		.loc 1 213 5 view .LVU96
 448 0010 164B     		ldr	r3, .L36
 449 0012 9A42     		cmp	r2, r3
 450 0014 01D0     		beq	.L35
 451              	.LVL20:
 452              	.L32:
 214:Core/Src/stm32f1xx_hal_msp.c ****   {
 215:Core/Src/stm32f1xx_hal_msp.c ****   /* USER CODE BEGIN SPI1_MspInit 0 */
 216:Core/Src/stm32f1xx_hal_msp.c **** 
 217:Core/Src/stm32f1xx_hal_msp.c ****   /* USER CODE END SPI1_MspInit 0 */
 218:Core/Src/stm32f1xx_hal_msp.c ****     /* Peripheral clock enable */
 219:Core/Src/stm32f1xx_hal_msp.c ****     __HAL_RCC_SPI1_CLK_ENABLE();
 220:Core/Src/stm32f1xx_hal_msp.c **** 
 221:Core/Src/stm32f1xx_hal_msp.c ****     __HAL_RCC_GPIOA_CLK_ENABLE();
 222:Core/Src/stm32f1xx_hal_msp.c ****     /**SPI1 GPIO Configuration
 223:Core/Src/stm32f1xx_hal_msp.c ****     PA5     ------> SPI1_SCK
 224:Core/Src/stm32f1xx_hal_msp.c ****     PA6     ------> SPI1_MISO
 225:Core/Src/stm32f1xx_hal_msp.c ****     PA7     ------> SPI1_MOSI
 226:Core/Src/stm32f1xx_hal_msp.c ****     */
 227:Core/Src/stm32f1xx_hal_msp.c ****     GPIO_InitStruct.Pin = GPIO_PIN_5|GPIO_PIN_7;
 228:Core/Src/stm32f1xx_hal_msp.c ****     GPIO_InitStruct.Mode = GPIO_MODE_AF_PP;
 229:Core/Src/stm32f1xx_hal_msp.c ****     GPIO_InitStruct.Speed = GPIO_SPEED_FREQ_HIGH;
 230:Core/Src/stm32f1xx_hal_msp.c ****     HAL_GPIO_Init(GPIOA, &GPIO_InitStruct);
 231:Core/Src/stm32f1xx_hal_msp.c **** 
 232:Core/Src/stm32f1xx_hal_msp.c ****     GPIO_InitStruct.Pin = GPIO_PIN_6;
 233:Core/Src/stm32f1xx_hal_msp.c ****     GPIO_InitStruct.Mode = GPIO_MODE_INPUT;
 234:Core/Src/stm32f1xx_hal_msp.c ****     GPIO_InitStruct.Pull = GPIO_NOPULL;
 235:Core/Src/stm32f1xx_hal_msp.c ****     HAL_GPIO_Init(GPIOA, &GPIO_InitStruct);
 236:Core/Src/stm32f1xx_hal_msp.c **** 
 237:Core/Src/stm32f1xx_hal_msp.c ****   /* USER CODE BEGIN SPI1_MspInit 1 */
 238:Core/Src/stm32f1xx_hal_msp.c **** 
 239:Core/Src/stm32f1xx_hal_msp.c ****   /* USER CODE END SPI1_MspInit 1 */
 240:Core/Src/stm32f1xx_hal_msp.c ****   }
 241:Core/Src/stm32f1xx_hal_msp.c **** 
 242:Core/Src/stm32f1xx_hal_msp.c **** }
 453              		.loc 1 242 1 view .LVU97
 454 0016 06B0     		add	sp, sp, #24
 455              	.LCFI14:
 456              		.cfi_remember_state
 457              		.cfi_def_cfa_offset 8
 458              		@ sp needed
 459 0018 10BD     		pop	{r4, pc}
 460              	.LVL21:
 461              	.L35:
 462              	.LCFI15:
 463              		.cfi_restore_state
 219:Core/Src/stm32f1xx_hal_msp.c **** 
 464              		.loc 1 219 5 is_stmt 1 view .LVU98
 465              	.LBB8:
 219:Core/Src/stm32f1xx_hal_msp.c **** 
 466              		.loc 1 219 5 view .LVU99
ARM GAS  /tmp/ccCtzt8r.s 			page 14


 219:Core/Src/stm32f1xx_hal_msp.c **** 
 467              		.loc 1 219 5 view .LVU100
 468 001a 03F56043 		add	r3, r3, #57344
 469 001e 9A69     		ldr	r2, [r3, #24]
 470 0020 42F48052 		orr	r2, r2, #4096
 471 0024 9A61     		str	r2, [r3, #24]
 219:Core/Src/stm32f1xx_hal_msp.c **** 
 472              		.loc 1 219 5 view .LVU101
 473 0026 9A69     		ldr	r2, [r3, #24]
 474 0028 02F48052 		and	r2, r2, #4096
 475 002c 0092     		str	r2, [sp]
 219:Core/Src/stm32f1xx_hal_msp.c **** 
 476              		.loc 1 219 5 view .LVU102
 477 002e 009A     		ldr	r2, [sp]
 478              	.LBE8:
 219:Core/Src/stm32f1xx_hal_msp.c **** 
 479              		.loc 1 219 5 view .LVU103
 221:Core/Src/stm32f1xx_hal_msp.c ****     /**SPI1 GPIO Configuration
 480              		.loc 1 221 5 view .LVU104
 481              	.LBB9:
 221:Core/Src/stm32f1xx_hal_msp.c ****     /**SPI1 GPIO Configuration
 482              		.loc 1 221 5 view .LVU105
 221:Core/Src/stm32f1xx_hal_msp.c ****     /**SPI1 GPIO Configuration
 483              		.loc 1 221 5 view .LVU106
 484 0030 9A69     		ldr	r2, [r3, #24]
 485 0032 42F00402 		orr	r2, r2, #4
 486 0036 9A61     		str	r2, [r3, #24]
 221:Core/Src/stm32f1xx_hal_msp.c ****     /**SPI1 GPIO Configuration
 487              		.loc 1 221 5 view .LVU107
 488 0038 9B69     		ldr	r3, [r3, #24]
 489 003a 03F00403 		and	r3, r3, #4
 490 003e 0193     		str	r3, [sp, #4]
 221:Core/Src/stm32f1xx_hal_msp.c ****     /**SPI1 GPIO Configuration
 491              		.loc 1 221 5 view .LVU108
 492 0040 019B     		ldr	r3, [sp, #4]
 493              	.LBE9:
 221:Core/Src/stm32f1xx_hal_msp.c ****     /**SPI1 GPIO Configuration
 494              		.loc 1 221 5 view .LVU109
 227:Core/Src/stm32f1xx_hal_msp.c ****     GPIO_InitStruct.Mode = GPIO_MODE_AF_PP;
 495              		.loc 1 227 5 view .LVU110
 227:Core/Src/stm32f1xx_hal_msp.c ****     GPIO_InitStruct.Mode = GPIO_MODE_AF_PP;
 496              		.loc 1 227 25 is_stmt 0 view .LVU111
 497 0042 A023     		movs	r3, #160
 498 0044 0293     		str	r3, [sp, #8]
 228:Core/Src/stm32f1xx_hal_msp.c ****     GPIO_InitStruct.Speed = GPIO_SPEED_FREQ_HIGH;
 499              		.loc 1 228 5 is_stmt 1 view .LVU112
 228:Core/Src/stm32f1xx_hal_msp.c ****     GPIO_InitStruct.Speed = GPIO_SPEED_FREQ_HIGH;
 500              		.loc 1 228 26 is_stmt 0 view .LVU113
 501 0046 0223     		movs	r3, #2
 502 0048 0393     		str	r3, [sp, #12]
 229:Core/Src/stm32f1xx_hal_msp.c ****     HAL_GPIO_Init(GPIOA, &GPIO_InitStruct);
 503              		.loc 1 229 5 is_stmt 1 view .LVU114
 229:Core/Src/stm32f1xx_hal_msp.c ****     HAL_GPIO_Init(GPIOA, &GPIO_InitStruct);
 504              		.loc 1 229 27 is_stmt 0 view .LVU115
 505 004a 0323     		movs	r3, #3
 506 004c 0593     		str	r3, [sp, #20]
 230:Core/Src/stm32f1xx_hal_msp.c **** 
ARM GAS  /tmp/ccCtzt8r.s 			page 15


 507              		.loc 1 230 5 is_stmt 1 view .LVU116
 508 004e 084C     		ldr	r4, .L36+4
 509 0050 02A9     		add	r1, sp, #8
 510 0052 2046     		mov	r0, r4
 511              	.LVL22:
 230:Core/Src/stm32f1xx_hal_msp.c **** 
 512              		.loc 1 230 5 is_stmt 0 view .LVU117
 513 0054 FFF7FEFF 		bl	HAL_GPIO_Init
 514              	.LVL23:
 232:Core/Src/stm32f1xx_hal_msp.c ****     GPIO_InitStruct.Mode = GPIO_MODE_INPUT;
 515              		.loc 1 232 5 is_stmt 1 view .LVU118
 232:Core/Src/stm32f1xx_hal_msp.c ****     GPIO_InitStruct.Mode = GPIO_MODE_INPUT;
 516              		.loc 1 232 25 is_stmt 0 view .LVU119
 517 0058 4023     		movs	r3, #64
 518 005a 0293     		str	r3, [sp, #8]
 233:Core/Src/stm32f1xx_hal_msp.c ****     GPIO_InitStruct.Pull = GPIO_NOPULL;
 519              		.loc 1 233 5 is_stmt 1 view .LVU120
 233:Core/Src/stm32f1xx_hal_msp.c ****     GPIO_InitStruct.Pull = GPIO_NOPULL;
 520              		.loc 1 233 26 is_stmt 0 view .LVU121
 521 005c 0023     		movs	r3, #0
 522 005e 0393     		str	r3, [sp, #12]
 234:Core/Src/stm32f1xx_hal_msp.c ****     HAL_GPIO_Init(GPIOA, &GPIO_InitStruct);
 523              		.loc 1 234 5 is_stmt 1 view .LVU122
 234:Core/Src/stm32f1xx_hal_msp.c ****     HAL_GPIO_Init(GPIOA, &GPIO_InitStruct);
 524              		.loc 1 234 26 is_stmt 0 view .LVU123
 525 0060 0493     		str	r3, [sp, #16]
 235:Core/Src/stm32f1xx_hal_msp.c **** 
 526              		.loc 1 235 5 is_stmt 1 view .LVU124
 527 0062 02A9     		add	r1, sp, #8
 528 0064 2046     		mov	r0, r4
 529 0066 FFF7FEFF 		bl	HAL_GPIO_Init
 530              	.LVL24:
 531              		.loc 1 242 1 is_stmt 0 view .LVU125
 532 006a D4E7     		b	.L32
 533              	.L37:
 534              		.align	2
 535              	.L36:
 536 006c 00300140 		.word	1073819648
 537 0070 00080140 		.word	1073809408
 538              		.cfi_endproc
 539              	.LFE70:
 541              		.section	.text.HAL_SPI_MspDeInit,"ax",%progbits
 542              		.align	1
 543              		.global	HAL_SPI_MspDeInit
 544              		.syntax unified
 545              		.thumb
 546              		.thumb_func
 547              		.fpu softvfp
 549              	HAL_SPI_MspDeInit:
 550              	.LVL25:
 551              	.LFB71:
 243:Core/Src/stm32f1xx_hal_msp.c **** 
 244:Core/Src/stm32f1xx_hal_msp.c **** /**
 245:Core/Src/stm32f1xx_hal_msp.c **** * @brief SPI MSP De-Initialization
 246:Core/Src/stm32f1xx_hal_msp.c **** * This function freeze the hardware resources used in this example
 247:Core/Src/stm32f1xx_hal_msp.c **** * @param hspi: SPI handle pointer
 248:Core/Src/stm32f1xx_hal_msp.c **** * @retval None
ARM GAS  /tmp/ccCtzt8r.s 			page 16


 249:Core/Src/stm32f1xx_hal_msp.c **** */
 250:Core/Src/stm32f1xx_hal_msp.c **** void HAL_SPI_MspDeInit(SPI_HandleTypeDef* hspi)
 251:Core/Src/stm32f1xx_hal_msp.c **** {
 552              		.loc 1 251 1 is_stmt 1 view -0
 553              		.cfi_startproc
 554              		@ args = 0, pretend = 0, frame = 0
 555              		@ frame_needed = 0, uses_anonymous_args = 0
 556              		.loc 1 251 1 is_stmt 0 view .LVU127
 557 0000 08B5     		push	{r3, lr}
 558              	.LCFI16:
 559              		.cfi_def_cfa_offset 8
 560              		.cfi_offset 3, -8
 561              		.cfi_offset 14, -4
 252:Core/Src/stm32f1xx_hal_msp.c ****   if(hspi->Instance==SPI1)
 562              		.loc 1 252 3 is_stmt 1 view .LVU128
 563              		.loc 1 252 10 is_stmt 0 view .LVU129
 564 0002 0268     		ldr	r2, [r0]
 565              		.loc 1 252 5 view .LVU130
 566 0004 064B     		ldr	r3, .L42
 567 0006 9A42     		cmp	r2, r3
 568 0008 00D0     		beq	.L41
 569              	.LVL26:
 570              	.L38:
 253:Core/Src/stm32f1xx_hal_msp.c ****   {
 254:Core/Src/stm32f1xx_hal_msp.c ****   /* USER CODE BEGIN SPI1_MspDeInit 0 */
 255:Core/Src/stm32f1xx_hal_msp.c **** 
 256:Core/Src/stm32f1xx_hal_msp.c ****   /* USER CODE END SPI1_MspDeInit 0 */
 257:Core/Src/stm32f1xx_hal_msp.c ****     /* Peripheral clock disable */
 258:Core/Src/stm32f1xx_hal_msp.c ****     __HAL_RCC_SPI1_CLK_DISABLE();
 259:Core/Src/stm32f1xx_hal_msp.c **** 
 260:Core/Src/stm32f1xx_hal_msp.c ****     /**SPI1 GPIO Configuration
 261:Core/Src/stm32f1xx_hal_msp.c ****     PA5     ------> SPI1_SCK
 262:Core/Src/stm32f1xx_hal_msp.c ****     PA6     ------> SPI1_MISO
 263:Core/Src/stm32f1xx_hal_msp.c ****     PA7     ------> SPI1_MOSI
 264:Core/Src/stm32f1xx_hal_msp.c ****     */
 265:Core/Src/stm32f1xx_hal_msp.c ****     HAL_GPIO_DeInit(GPIOA, GPIO_PIN_5|GPIO_PIN_6|GPIO_PIN_7);
 266:Core/Src/stm32f1xx_hal_msp.c **** 
 267:Core/Src/stm32f1xx_hal_msp.c ****   /* USER CODE BEGIN SPI1_MspDeInit 1 */
 268:Core/Src/stm32f1xx_hal_msp.c **** 
 269:Core/Src/stm32f1xx_hal_msp.c ****   /* USER CODE END SPI1_MspDeInit 1 */
 270:Core/Src/stm32f1xx_hal_msp.c ****   }
 271:Core/Src/stm32f1xx_hal_msp.c **** 
 272:Core/Src/stm32f1xx_hal_msp.c **** }
 571              		.loc 1 272 1 view .LVU131
 572 000a 08BD     		pop	{r3, pc}
 573              	.LVL27:
 574              	.L41:
 258:Core/Src/stm32f1xx_hal_msp.c **** 
 575              		.loc 1 258 5 is_stmt 1 view .LVU132
 576 000c 054A     		ldr	r2, .L42+4
 577 000e 9369     		ldr	r3, [r2, #24]
 578 0010 23F48053 		bic	r3, r3, #4096
 579 0014 9361     		str	r3, [r2, #24]
 265:Core/Src/stm32f1xx_hal_msp.c **** 
 580              		.loc 1 265 5 view .LVU133
 581 0016 E021     		movs	r1, #224
 582 0018 0348     		ldr	r0, .L42+8
ARM GAS  /tmp/ccCtzt8r.s 			page 17


 583              	.LVL28:
 265:Core/Src/stm32f1xx_hal_msp.c **** 
 584              		.loc 1 265 5 is_stmt 0 view .LVU134
 585 001a FFF7FEFF 		bl	HAL_GPIO_DeInit
 586              	.LVL29:
 587              		.loc 1 272 1 view .LVU135
 588 001e F4E7     		b	.L38
 589              	.L43:
 590              		.align	2
 591              	.L42:
 592 0020 00300140 		.word	1073819648
 593 0024 00100240 		.word	1073876992
 594 0028 00080140 		.word	1073809408
 595              		.cfi_endproc
 596              	.LFE71:
 598              		.section	.text.HAL_TIM_Base_MspInit,"ax",%progbits
 599              		.align	1
 600              		.global	HAL_TIM_Base_MspInit
 601              		.syntax unified
 602              		.thumb
 603              		.thumb_func
 604              		.fpu softvfp
 606              	HAL_TIM_Base_MspInit:
 607              	.LVL30:
 608              	.LFB72:
 273:Core/Src/stm32f1xx_hal_msp.c **** 
 274:Core/Src/stm32f1xx_hal_msp.c **** /**
 275:Core/Src/stm32f1xx_hal_msp.c **** * @brief TIM_Base MSP Initialization
 276:Core/Src/stm32f1xx_hal_msp.c **** * This function configures the hardware resources used in this example
 277:Core/Src/stm32f1xx_hal_msp.c **** * @param htim_base: TIM_Base handle pointer
 278:Core/Src/stm32f1xx_hal_msp.c **** * @retval None
 279:Core/Src/stm32f1xx_hal_msp.c **** */
 280:Core/Src/stm32f1xx_hal_msp.c **** void HAL_TIM_Base_MspInit(TIM_HandleTypeDef* htim_base)
 281:Core/Src/stm32f1xx_hal_msp.c **** {
 609              		.loc 1 281 1 is_stmt 1 view -0
 610              		.cfi_startproc
 611              		@ args = 0, pretend = 0, frame = 8
 612              		@ frame_needed = 0, uses_anonymous_args = 0
 613              		.loc 1 281 1 is_stmt 0 view .LVU137
 614 0000 00B5     		push	{lr}
 615              	.LCFI17:
 616              		.cfi_def_cfa_offset 4
 617              		.cfi_offset 14, -4
 618 0002 83B0     		sub	sp, sp, #12
 619              	.LCFI18:
 620              		.cfi_def_cfa_offset 16
 282:Core/Src/stm32f1xx_hal_msp.c ****   if(htim_base->Instance==TIM1)
 621              		.loc 1 282 3 is_stmt 1 view .LVU138
 622              		.loc 1 282 15 is_stmt 0 view .LVU139
 623 0004 0368     		ldr	r3, [r0]
 624              		.loc 1 282 5 view .LVU140
 625 0006 174A     		ldr	r2, .L50
 626 0008 9342     		cmp	r3, r2
 627 000a 05D0     		beq	.L48
 283:Core/Src/stm32f1xx_hal_msp.c ****   {
 284:Core/Src/stm32f1xx_hal_msp.c ****   /* USER CODE BEGIN TIM1_MspInit 0 */
 285:Core/Src/stm32f1xx_hal_msp.c **** 
ARM GAS  /tmp/ccCtzt8r.s 			page 18


 286:Core/Src/stm32f1xx_hal_msp.c ****   /* USER CODE END TIM1_MspInit 0 */
 287:Core/Src/stm32f1xx_hal_msp.c ****     /* Peripheral clock enable */
 288:Core/Src/stm32f1xx_hal_msp.c ****     __HAL_RCC_TIM1_CLK_ENABLE();
 289:Core/Src/stm32f1xx_hal_msp.c ****     /* TIM1 interrupt Init */
 290:Core/Src/stm32f1xx_hal_msp.c ****     HAL_NVIC_SetPriority(TIM1_UP_IRQn, 0, 0);
 291:Core/Src/stm32f1xx_hal_msp.c ****     HAL_NVIC_EnableIRQ(TIM1_UP_IRQn);
 292:Core/Src/stm32f1xx_hal_msp.c ****   /* USER CODE BEGIN TIM1_MspInit 1 */
 293:Core/Src/stm32f1xx_hal_msp.c **** 
 294:Core/Src/stm32f1xx_hal_msp.c ****   /* USER CODE END TIM1_MspInit 1 */
 295:Core/Src/stm32f1xx_hal_msp.c ****   }
 296:Core/Src/stm32f1xx_hal_msp.c ****   else if(htim_base->Instance==TIM3)
 628              		.loc 1 296 8 is_stmt 1 view .LVU141
 629              		.loc 1 296 10 is_stmt 0 view .LVU142
 630 000c 164A     		ldr	r2, .L50+4
 631 000e 9342     		cmp	r3, r2
 632 0010 15D0     		beq	.L49
 633              	.LVL31:
 634              	.L44:
 297:Core/Src/stm32f1xx_hal_msp.c ****   {
 298:Core/Src/stm32f1xx_hal_msp.c ****   /* USER CODE BEGIN TIM3_MspInit 0 */
 299:Core/Src/stm32f1xx_hal_msp.c **** 
 300:Core/Src/stm32f1xx_hal_msp.c ****   /* USER CODE END TIM3_MspInit 0 */
 301:Core/Src/stm32f1xx_hal_msp.c ****     /* Peripheral clock enable */
 302:Core/Src/stm32f1xx_hal_msp.c ****     __HAL_RCC_TIM3_CLK_ENABLE();
 303:Core/Src/stm32f1xx_hal_msp.c ****     /* TIM3 interrupt Init */
 304:Core/Src/stm32f1xx_hal_msp.c ****     HAL_NVIC_SetPriority(TIM3_IRQn, 0, 0);
 305:Core/Src/stm32f1xx_hal_msp.c ****     HAL_NVIC_EnableIRQ(TIM3_IRQn);
 306:Core/Src/stm32f1xx_hal_msp.c ****   /* USER CODE BEGIN TIM3_MspInit 1 */
 307:Core/Src/stm32f1xx_hal_msp.c **** 
 308:Core/Src/stm32f1xx_hal_msp.c ****   /* USER CODE END TIM3_MspInit 1 */
 309:Core/Src/stm32f1xx_hal_msp.c ****   }
 310:Core/Src/stm32f1xx_hal_msp.c **** 
 311:Core/Src/stm32f1xx_hal_msp.c **** }
 635              		.loc 1 311 1 view .LVU143
 636 0012 03B0     		add	sp, sp, #12
 637              	.LCFI19:
 638              		.cfi_remember_state
 639              		.cfi_def_cfa_offset 4
 640              		@ sp needed
 641 0014 5DF804FB 		ldr	pc, [sp], #4
 642              	.LVL32:
 643              	.L48:
 644              	.LCFI20:
 645              		.cfi_restore_state
 288:Core/Src/stm32f1xx_hal_msp.c ****     /* TIM1 interrupt Init */
 646              		.loc 1 288 5 is_stmt 1 view .LVU144
 647              	.LBB10:
 288:Core/Src/stm32f1xx_hal_msp.c ****     /* TIM1 interrupt Init */
 648              		.loc 1 288 5 view .LVU145
 288:Core/Src/stm32f1xx_hal_msp.c ****     /* TIM1 interrupt Init */
 649              		.loc 1 288 5 view .LVU146
 650 0018 144B     		ldr	r3, .L50+8
 651 001a 9A69     		ldr	r2, [r3, #24]
 652 001c 42F40062 		orr	r2, r2, #2048
 653 0020 9A61     		str	r2, [r3, #24]
 288:Core/Src/stm32f1xx_hal_msp.c ****     /* TIM1 interrupt Init */
 654              		.loc 1 288 5 view .LVU147
ARM GAS  /tmp/ccCtzt8r.s 			page 19


 655 0022 9B69     		ldr	r3, [r3, #24]
 656 0024 03F40063 		and	r3, r3, #2048
 657 0028 0093     		str	r3, [sp]
 288:Core/Src/stm32f1xx_hal_msp.c ****     /* TIM1 interrupt Init */
 658              		.loc 1 288 5 view .LVU148
 659 002a 009B     		ldr	r3, [sp]
 660              	.LBE10:
 288:Core/Src/stm32f1xx_hal_msp.c ****     /* TIM1 interrupt Init */
 661              		.loc 1 288 5 view .LVU149
 290:Core/Src/stm32f1xx_hal_msp.c ****     HAL_NVIC_EnableIRQ(TIM1_UP_IRQn);
 662              		.loc 1 290 5 view .LVU150
 663 002c 0022     		movs	r2, #0
 664 002e 1146     		mov	r1, r2
 665 0030 1920     		movs	r0, #25
 666              	.LVL33:
 290:Core/Src/stm32f1xx_hal_msp.c ****     HAL_NVIC_EnableIRQ(TIM1_UP_IRQn);
 667              		.loc 1 290 5 is_stmt 0 view .LVU151
 668 0032 FFF7FEFF 		bl	HAL_NVIC_SetPriority
 669              	.LVL34:
 291:Core/Src/stm32f1xx_hal_msp.c ****   /* USER CODE BEGIN TIM1_MspInit 1 */
 670              		.loc 1 291 5 is_stmt 1 view .LVU152
 671 0036 1920     		movs	r0, #25
 672 0038 FFF7FEFF 		bl	HAL_NVIC_EnableIRQ
 673              	.LVL35:
 674 003c E9E7     		b	.L44
 675              	.LVL36:
 676              	.L49:
 302:Core/Src/stm32f1xx_hal_msp.c ****     /* TIM3 interrupt Init */
 677              		.loc 1 302 5 view .LVU153
 678              	.LBB11:
 302:Core/Src/stm32f1xx_hal_msp.c ****     /* TIM3 interrupt Init */
 679              		.loc 1 302 5 view .LVU154
 302:Core/Src/stm32f1xx_hal_msp.c ****     /* TIM3 interrupt Init */
 680              		.loc 1 302 5 view .LVU155
 681 003e 0B4B     		ldr	r3, .L50+8
 682 0040 DA69     		ldr	r2, [r3, #28]
 683 0042 42F00202 		orr	r2, r2, #2
 684 0046 DA61     		str	r2, [r3, #28]
 302:Core/Src/stm32f1xx_hal_msp.c ****     /* TIM3 interrupt Init */
 685              		.loc 1 302 5 view .LVU156
 686 0048 DB69     		ldr	r3, [r3, #28]
 687 004a 03F00203 		and	r3, r3, #2
 688 004e 0193     		str	r3, [sp, #4]
 302:Core/Src/stm32f1xx_hal_msp.c ****     /* TIM3 interrupt Init */
 689              		.loc 1 302 5 view .LVU157
 690 0050 019B     		ldr	r3, [sp, #4]
 691              	.LBE11:
 302:Core/Src/stm32f1xx_hal_msp.c ****     /* TIM3 interrupt Init */
 692              		.loc 1 302 5 view .LVU158
 304:Core/Src/stm32f1xx_hal_msp.c ****     HAL_NVIC_EnableIRQ(TIM3_IRQn);
 693              		.loc 1 304 5 view .LVU159
 694 0052 0022     		movs	r2, #0
 695 0054 1146     		mov	r1, r2
 696 0056 1D20     		movs	r0, #29
 697              	.LVL37:
 304:Core/Src/stm32f1xx_hal_msp.c ****     HAL_NVIC_EnableIRQ(TIM3_IRQn);
 698              		.loc 1 304 5 is_stmt 0 view .LVU160
ARM GAS  /tmp/ccCtzt8r.s 			page 20


 699 0058 FFF7FEFF 		bl	HAL_NVIC_SetPriority
 700              	.LVL38:
 305:Core/Src/stm32f1xx_hal_msp.c ****   /* USER CODE BEGIN TIM3_MspInit 1 */
 701              		.loc 1 305 5 is_stmt 1 view .LVU161
 702 005c 1D20     		movs	r0, #29
 703 005e FFF7FEFF 		bl	HAL_NVIC_EnableIRQ
 704              	.LVL39:
 705              		.loc 1 311 1 is_stmt 0 view .LVU162
 706 0062 D6E7     		b	.L44
 707              	.L51:
 708              		.align	2
 709              	.L50:
 710 0064 002C0140 		.word	1073818624
 711 0068 00040040 		.word	1073742848
 712 006c 00100240 		.word	1073876992
 713              		.cfi_endproc
 714              	.LFE72:
 716              		.section	.text.HAL_TIM_Base_MspDeInit,"ax",%progbits
 717              		.align	1
 718              		.global	HAL_TIM_Base_MspDeInit
 719              		.syntax unified
 720              		.thumb
 721              		.thumb_func
 722              		.fpu softvfp
 724              	HAL_TIM_Base_MspDeInit:
 725              	.LVL40:
 726              	.LFB73:
 312:Core/Src/stm32f1xx_hal_msp.c **** 
 313:Core/Src/stm32f1xx_hal_msp.c **** /**
 314:Core/Src/stm32f1xx_hal_msp.c **** * @brief TIM_Base MSP De-Initialization
 315:Core/Src/stm32f1xx_hal_msp.c **** * This function freeze the hardware resources used in this example
 316:Core/Src/stm32f1xx_hal_msp.c **** * @param htim_base: TIM_Base handle pointer
 317:Core/Src/stm32f1xx_hal_msp.c **** * @retval None
 318:Core/Src/stm32f1xx_hal_msp.c **** */
 319:Core/Src/stm32f1xx_hal_msp.c **** void HAL_TIM_Base_MspDeInit(TIM_HandleTypeDef* htim_base)
 320:Core/Src/stm32f1xx_hal_msp.c **** {
 727              		.loc 1 320 1 is_stmt 1 view -0
 728              		.cfi_startproc
 729              		@ args = 0, pretend = 0, frame = 0
 730              		@ frame_needed = 0, uses_anonymous_args = 0
 731              		.loc 1 320 1 is_stmt 0 view .LVU164
 732 0000 08B5     		push	{r3, lr}
 733              	.LCFI21:
 734              		.cfi_def_cfa_offset 8
 735              		.cfi_offset 3, -8
 736              		.cfi_offset 14, -4
 321:Core/Src/stm32f1xx_hal_msp.c ****   if(htim_base->Instance==TIM1)
 737              		.loc 1 321 3 is_stmt 1 view .LVU165
 738              		.loc 1 321 15 is_stmt 0 view .LVU166
 739 0002 0368     		ldr	r3, [r0]
 740              		.loc 1 321 5 view .LVU167
 741 0004 0D4A     		ldr	r2, .L58
 742 0006 9342     		cmp	r3, r2
 743 0008 03D0     		beq	.L56
 322:Core/Src/stm32f1xx_hal_msp.c ****   {
 323:Core/Src/stm32f1xx_hal_msp.c ****   /* USER CODE BEGIN TIM1_MspDeInit 0 */
 324:Core/Src/stm32f1xx_hal_msp.c **** 
ARM GAS  /tmp/ccCtzt8r.s 			page 21


 325:Core/Src/stm32f1xx_hal_msp.c ****   /* USER CODE END TIM1_MspDeInit 0 */
 326:Core/Src/stm32f1xx_hal_msp.c ****     /* Peripheral clock disable */
 327:Core/Src/stm32f1xx_hal_msp.c ****     __HAL_RCC_TIM1_CLK_DISABLE();
 328:Core/Src/stm32f1xx_hal_msp.c **** 
 329:Core/Src/stm32f1xx_hal_msp.c ****     /* TIM1 interrupt DeInit */
 330:Core/Src/stm32f1xx_hal_msp.c ****     HAL_NVIC_DisableIRQ(TIM1_UP_IRQn);
 331:Core/Src/stm32f1xx_hal_msp.c ****   /* USER CODE BEGIN TIM1_MspDeInit 1 */
 332:Core/Src/stm32f1xx_hal_msp.c **** 
 333:Core/Src/stm32f1xx_hal_msp.c ****   /* USER CODE END TIM1_MspDeInit 1 */
 334:Core/Src/stm32f1xx_hal_msp.c ****   }
 335:Core/Src/stm32f1xx_hal_msp.c ****   else if(htim_base->Instance==TIM3)
 744              		.loc 1 335 8 is_stmt 1 view .LVU168
 745              		.loc 1 335 10 is_stmt 0 view .LVU169
 746 000a 0D4A     		ldr	r2, .L58+4
 747 000c 9342     		cmp	r3, r2
 748 000e 0AD0     		beq	.L57
 749              	.LVL41:
 750              	.L52:
 336:Core/Src/stm32f1xx_hal_msp.c ****   {
 337:Core/Src/stm32f1xx_hal_msp.c ****   /* USER CODE BEGIN TIM3_MspDeInit 0 */
 338:Core/Src/stm32f1xx_hal_msp.c **** 
 339:Core/Src/stm32f1xx_hal_msp.c ****   /* USER CODE END TIM3_MspDeInit 0 */
 340:Core/Src/stm32f1xx_hal_msp.c ****     /* Peripheral clock disable */
 341:Core/Src/stm32f1xx_hal_msp.c ****     __HAL_RCC_TIM3_CLK_DISABLE();
 342:Core/Src/stm32f1xx_hal_msp.c **** 
 343:Core/Src/stm32f1xx_hal_msp.c ****     /* TIM3 interrupt DeInit */
 344:Core/Src/stm32f1xx_hal_msp.c ****     HAL_NVIC_DisableIRQ(TIM3_IRQn);
 345:Core/Src/stm32f1xx_hal_msp.c ****   /* USER CODE BEGIN TIM3_MspDeInit 1 */
 346:Core/Src/stm32f1xx_hal_msp.c **** 
 347:Core/Src/stm32f1xx_hal_msp.c ****   /* USER CODE END TIM3_MspDeInit 1 */
 348:Core/Src/stm32f1xx_hal_msp.c ****   }
 349:Core/Src/stm32f1xx_hal_msp.c **** 
 350:Core/Src/stm32f1xx_hal_msp.c **** }
 751              		.loc 1 350 1 view .LVU170
 752 0010 08BD     		pop	{r3, pc}
 753              	.LVL42:
 754              	.L56:
 327:Core/Src/stm32f1xx_hal_msp.c **** 
 755              		.loc 1 327 5 is_stmt 1 view .LVU171
 756 0012 02F56442 		add	r2, r2, #58368
 757 0016 9369     		ldr	r3, [r2, #24]
 758 0018 23F40063 		bic	r3, r3, #2048
 759 001c 9361     		str	r3, [r2, #24]
 330:Core/Src/stm32f1xx_hal_msp.c ****   /* USER CODE BEGIN TIM1_MspDeInit 1 */
 760              		.loc 1 330 5 view .LVU172
 761 001e 1920     		movs	r0, #25
 762              	.LVL43:
 330:Core/Src/stm32f1xx_hal_msp.c ****   /* USER CODE BEGIN TIM1_MspDeInit 1 */
 763              		.loc 1 330 5 is_stmt 0 view .LVU173
 764 0020 FFF7FEFF 		bl	HAL_NVIC_DisableIRQ
 765              	.LVL44:
 766 0024 F4E7     		b	.L52
 767              	.LVL45:
 768              	.L57:
 341:Core/Src/stm32f1xx_hal_msp.c **** 
 769              		.loc 1 341 5 is_stmt 1 view .LVU174
 770 0026 02F50332 		add	r2, r2, #134144
ARM GAS  /tmp/ccCtzt8r.s 			page 22


 771 002a D369     		ldr	r3, [r2, #28]
 772 002c 23F00203 		bic	r3, r3, #2
 773 0030 D361     		str	r3, [r2, #28]
 344:Core/Src/stm32f1xx_hal_msp.c ****   /* USER CODE BEGIN TIM3_MspDeInit 1 */
 774              		.loc 1 344 5 view .LVU175
 775 0032 1D20     		movs	r0, #29
 776              	.LVL46:
 344:Core/Src/stm32f1xx_hal_msp.c ****   /* USER CODE BEGIN TIM3_MspDeInit 1 */
 777              		.loc 1 344 5 is_stmt 0 view .LVU176
 778 0034 FFF7FEFF 		bl	HAL_NVIC_DisableIRQ
 779              	.LVL47:
 780              		.loc 1 350 1 view .LVU177
 781 0038 EAE7     		b	.L52
 782              	.L59:
 783 003a 00BF     		.align	2
 784              	.L58:
 785 003c 002C0140 		.word	1073818624
 786 0040 00040040 		.word	1073742848
 787              		.cfi_endproc
 788              	.LFE73:
 790              		.section	.text.HAL_UART_MspInit,"ax",%progbits
 791              		.align	1
 792              		.global	HAL_UART_MspInit
 793              		.syntax unified
 794              		.thumb
 795              		.thumb_func
 796              		.fpu softvfp
 798              	HAL_UART_MspInit:
 799              	.LVL48:
 800              	.LFB74:
 351:Core/Src/stm32f1xx_hal_msp.c **** 
 352:Core/Src/stm32f1xx_hal_msp.c **** /**
 353:Core/Src/stm32f1xx_hal_msp.c **** * @brief UART MSP Initialization
 354:Core/Src/stm32f1xx_hal_msp.c **** * This function configures the hardware resources used in this example
 355:Core/Src/stm32f1xx_hal_msp.c **** * @param huart: UART handle pointer
 356:Core/Src/stm32f1xx_hal_msp.c **** * @retval None
 357:Core/Src/stm32f1xx_hal_msp.c **** */
 358:Core/Src/stm32f1xx_hal_msp.c **** void HAL_UART_MspInit(UART_HandleTypeDef* huart)
 359:Core/Src/stm32f1xx_hal_msp.c **** {
 801              		.loc 1 359 1 is_stmt 1 view -0
 802              		.cfi_startproc
 803              		@ args = 0, pretend = 0, frame = 32
 804              		@ frame_needed = 0, uses_anonymous_args = 0
 805              		.loc 1 359 1 is_stmt 0 view .LVU179
 806 0000 10B5     		push	{r4, lr}
 807              	.LCFI22:
 808              		.cfi_def_cfa_offset 8
 809              		.cfi_offset 4, -8
 810              		.cfi_offset 14, -4
 811 0002 88B0     		sub	sp, sp, #32
 812              	.LCFI23:
 813              		.cfi_def_cfa_offset 40
 360:Core/Src/stm32f1xx_hal_msp.c ****   GPIO_InitTypeDef GPIO_InitStruct = {0};
 814              		.loc 1 360 3 is_stmt 1 view .LVU180
 815              		.loc 1 360 20 is_stmt 0 view .LVU181
 816 0004 0023     		movs	r3, #0
 817 0006 0493     		str	r3, [sp, #16]
ARM GAS  /tmp/ccCtzt8r.s 			page 23


 818 0008 0593     		str	r3, [sp, #20]
 819 000a 0693     		str	r3, [sp, #24]
 820 000c 0793     		str	r3, [sp, #28]
 361:Core/Src/stm32f1xx_hal_msp.c ****   if(huart->Instance==USART1)
 821              		.loc 1 361 3 is_stmt 1 view .LVU182
 822              		.loc 1 361 11 is_stmt 0 view .LVU183
 823 000e 0368     		ldr	r3, [r0]
 824              		.loc 1 361 5 view .LVU184
 825 0010 2C4A     		ldr	r2, .L66
 826 0012 9342     		cmp	r3, r2
 827 0014 04D0     		beq	.L64
 362:Core/Src/stm32f1xx_hal_msp.c ****   {
 363:Core/Src/stm32f1xx_hal_msp.c ****   /* USER CODE BEGIN USART1_MspInit 0 */
 364:Core/Src/stm32f1xx_hal_msp.c **** 
 365:Core/Src/stm32f1xx_hal_msp.c ****   /* USER CODE END USART1_MspInit 0 */
 366:Core/Src/stm32f1xx_hal_msp.c ****     /* Peripheral clock enable */
 367:Core/Src/stm32f1xx_hal_msp.c ****     __HAL_RCC_USART1_CLK_ENABLE();
 368:Core/Src/stm32f1xx_hal_msp.c **** 
 369:Core/Src/stm32f1xx_hal_msp.c ****     __HAL_RCC_GPIOA_CLK_ENABLE();
 370:Core/Src/stm32f1xx_hal_msp.c ****     /**USART1 GPIO Configuration
 371:Core/Src/stm32f1xx_hal_msp.c ****     PA9     ------> USART1_TX
 372:Core/Src/stm32f1xx_hal_msp.c ****     PA10     ------> USART1_RX
 373:Core/Src/stm32f1xx_hal_msp.c ****     */
 374:Core/Src/stm32f1xx_hal_msp.c ****     GPIO_InitStruct.Pin = GPIO_PIN_9;
 375:Core/Src/stm32f1xx_hal_msp.c ****     GPIO_InitStruct.Mode = GPIO_MODE_AF_PP;
 376:Core/Src/stm32f1xx_hal_msp.c ****     GPIO_InitStruct.Speed = GPIO_SPEED_FREQ_HIGH;
 377:Core/Src/stm32f1xx_hal_msp.c ****     HAL_GPIO_Init(GPIOA, &GPIO_InitStruct);
 378:Core/Src/stm32f1xx_hal_msp.c **** 
 379:Core/Src/stm32f1xx_hal_msp.c ****     GPIO_InitStruct.Pin = GPIO_PIN_10;
 380:Core/Src/stm32f1xx_hal_msp.c ****     GPIO_InitStruct.Mode = GPIO_MODE_INPUT;
 381:Core/Src/stm32f1xx_hal_msp.c ****     GPIO_InitStruct.Pull = GPIO_NOPULL;
 382:Core/Src/stm32f1xx_hal_msp.c ****     HAL_GPIO_Init(GPIOA, &GPIO_InitStruct);
 383:Core/Src/stm32f1xx_hal_msp.c **** 
 384:Core/Src/stm32f1xx_hal_msp.c ****   /* USER CODE BEGIN USART1_MspInit 1 */
 385:Core/Src/stm32f1xx_hal_msp.c **** 
 386:Core/Src/stm32f1xx_hal_msp.c ****   /* USER CODE END USART1_MspInit 1 */
 387:Core/Src/stm32f1xx_hal_msp.c ****   }
 388:Core/Src/stm32f1xx_hal_msp.c ****   else if(huart->Instance==USART2)
 828              		.loc 1 388 8 is_stmt 1 view .LVU185
 829              		.loc 1 388 10 is_stmt 0 view .LVU186
 830 0016 2C4A     		ldr	r2, .L66+4
 831 0018 9342     		cmp	r3, r2
 832 001a 2BD0     		beq	.L65
 833              	.LVL49:
 834              	.L60:
 389:Core/Src/stm32f1xx_hal_msp.c ****   {
 390:Core/Src/stm32f1xx_hal_msp.c ****   /* USER CODE BEGIN USART2_MspInit 0 */
 391:Core/Src/stm32f1xx_hal_msp.c **** 
 392:Core/Src/stm32f1xx_hal_msp.c ****   /* USER CODE END USART2_MspInit 0 */
 393:Core/Src/stm32f1xx_hal_msp.c ****     /* Peripheral clock enable */
 394:Core/Src/stm32f1xx_hal_msp.c ****     __HAL_RCC_USART2_CLK_ENABLE();
 395:Core/Src/stm32f1xx_hal_msp.c **** 
 396:Core/Src/stm32f1xx_hal_msp.c ****     __HAL_RCC_GPIOA_CLK_ENABLE();
 397:Core/Src/stm32f1xx_hal_msp.c ****     /**USART2 GPIO Configuration
 398:Core/Src/stm32f1xx_hal_msp.c ****     PA2     ------> USART2_TX
 399:Core/Src/stm32f1xx_hal_msp.c ****     PA3     ------> USART2_RX
 400:Core/Src/stm32f1xx_hal_msp.c ****     */
ARM GAS  /tmp/ccCtzt8r.s 			page 24


 401:Core/Src/stm32f1xx_hal_msp.c ****     GPIO_InitStruct.Pin = GPIO_PIN_2;
 402:Core/Src/stm32f1xx_hal_msp.c ****     GPIO_InitStruct.Mode = GPIO_MODE_AF_PP;
 403:Core/Src/stm32f1xx_hal_msp.c ****     GPIO_InitStruct.Speed = GPIO_SPEED_FREQ_HIGH;
 404:Core/Src/stm32f1xx_hal_msp.c ****     HAL_GPIO_Init(GPIOA, &GPIO_InitStruct);
 405:Core/Src/stm32f1xx_hal_msp.c **** 
 406:Core/Src/stm32f1xx_hal_msp.c ****     GPIO_InitStruct.Pin = GPIO_PIN_3;
 407:Core/Src/stm32f1xx_hal_msp.c ****     GPIO_InitStruct.Mode = GPIO_MODE_INPUT;
 408:Core/Src/stm32f1xx_hal_msp.c ****     GPIO_InitStruct.Pull = GPIO_NOPULL;
 409:Core/Src/stm32f1xx_hal_msp.c ****     HAL_GPIO_Init(GPIOA, &GPIO_InitStruct);
 410:Core/Src/stm32f1xx_hal_msp.c **** 
 411:Core/Src/stm32f1xx_hal_msp.c ****   /* USER CODE BEGIN USART2_MspInit 1 */
 412:Core/Src/stm32f1xx_hal_msp.c **** 
 413:Core/Src/stm32f1xx_hal_msp.c ****   /* USER CODE END USART2_MspInit 1 */
 414:Core/Src/stm32f1xx_hal_msp.c ****   }
 415:Core/Src/stm32f1xx_hal_msp.c **** 
 416:Core/Src/stm32f1xx_hal_msp.c **** }
 835              		.loc 1 416 1 view .LVU187
 836 001c 08B0     		add	sp, sp, #32
 837              	.LCFI24:
 838              		.cfi_remember_state
 839              		.cfi_def_cfa_offset 8
 840              		@ sp needed
 841 001e 10BD     		pop	{r4, pc}
 842              	.LVL50:
 843              	.L64:
 844              	.LCFI25:
 845              		.cfi_restore_state
 367:Core/Src/stm32f1xx_hal_msp.c **** 
 846              		.loc 1 367 5 is_stmt 1 view .LVU188
 847              	.LBB12:
 367:Core/Src/stm32f1xx_hal_msp.c **** 
 848              		.loc 1 367 5 view .LVU189
 367:Core/Src/stm32f1xx_hal_msp.c **** 
 849              		.loc 1 367 5 view .LVU190
 850 0020 2A4B     		ldr	r3, .L66+8
 851 0022 9A69     		ldr	r2, [r3, #24]
 852 0024 42F48042 		orr	r2, r2, #16384
 853 0028 9A61     		str	r2, [r3, #24]
 367:Core/Src/stm32f1xx_hal_msp.c **** 
 854              		.loc 1 367 5 view .LVU191
 855 002a 9A69     		ldr	r2, [r3, #24]
 856 002c 02F48042 		and	r2, r2, #16384
 857 0030 0092     		str	r2, [sp]
 367:Core/Src/stm32f1xx_hal_msp.c **** 
 858              		.loc 1 367 5 view .LVU192
 859 0032 009A     		ldr	r2, [sp]
 860              	.LBE12:
 367:Core/Src/stm32f1xx_hal_msp.c **** 
 861              		.loc 1 367 5 view .LVU193
 369:Core/Src/stm32f1xx_hal_msp.c ****     /**USART1 GPIO Configuration
 862              		.loc 1 369 5 view .LVU194
 863              	.LBB13:
 369:Core/Src/stm32f1xx_hal_msp.c ****     /**USART1 GPIO Configuration
 864              		.loc 1 369 5 view .LVU195
 369:Core/Src/stm32f1xx_hal_msp.c ****     /**USART1 GPIO Configuration
 865              		.loc 1 369 5 view .LVU196
 866 0034 9A69     		ldr	r2, [r3, #24]
ARM GAS  /tmp/ccCtzt8r.s 			page 25


 867 0036 42F00402 		orr	r2, r2, #4
 868 003a 9A61     		str	r2, [r3, #24]
 369:Core/Src/stm32f1xx_hal_msp.c ****     /**USART1 GPIO Configuration
 869              		.loc 1 369 5 view .LVU197
 870 003c 9B69     		ldr	r3, [r3, #24]
 871 003e 03F00403 		and	r3, r3, #4
 872 0042 0193     		str	r3, [sp, #4]
 369:Core/Src/stm32f1xx_hal_msp.c ****     /**USART1 GPIO Configuration
 873              		.loc 1 369 5 view .LVU198
 874 0044 019B     		ldr	r3, [sp, #4]
 875              	.LBE13:
 369:Core/Src/stm32f1xx_hal_msp.c ****     /**USART1 GPIO Configuration
 876              		.loc 1 369 5 view .LVU199
 374:Core/Src/stm32f1xx_hal_msp.c ****     GPIO_InitStruct.Mode = GPIO_MODE_AF_PP;
 877              		.loc 1 374 5 view .LVU200
 374:Core/Src/stm32f1xx_hal_msp.c ****     GPIO_InitStruct.Mode = GPIO_MODE_AF_PP;
 878              		.loc 1 374 25 is_stmt 0 view .LVU201
 879 0046 4FF40073 		mov	r3, #512
 880 004a 0493     		str	r3, [sp, #16]
 375:Core/Src/stm32f1xx_hal_msp.c ****     GPIO_InitStruct.Speed = GPIO_SPEED_FREQ_HIGH;
 881              		.loc 1 375 5 is_stmt 1 view .LVU202
 375:Core/Src/stm32f1xx_hal_msp.c ****     GPIO_InitStruct.Speed = GPIO_SPEED_FREQ_HIGH;
 882              		.loc 1 375 26 is_stmt 0 view .LVU203
 883 004c 0223     		movs	r3, #2
 884 004e 0593     		str	r3, [sp, #20]
 376:Core/Src/stm32f1xx_hal_msp.c ****     HAL_GPIO_Init(GPIOA, &GPIO_InitStruct);
 885              		.loc 1 376 5 is_stmt 1 view .LVU204
 376:Core/Src/stm32f1xx_hal_msp.c ****     HAL_GPIO_Init(GPIOA, &GPIO_InitStruct);
 886              		.loc 1 376 27 is_stmt 0 view .LVU205
 887 0050 0323     		movs	r3, #3
 888 0052 0793     		str	r3, [sp, #28]
 377:Core/Src/stm32f1xx_hal_msp.c **** 
 889              		.loc 1 377 5 is_stmt 1 view .LVU206
 890 0054 1E4C     		ldr	r4, .L66+12
 891 0056 04A9     		add	r1, sp, #16
 892 0058 2046     		mov	r0, r4
 893              	.LVL51:
 377:Core/Src/stm32f1xx_hal_msp.c **** 
 894              		.loc 1 377 5 is_stmt 0 view .LVU207
 895 005a FFF7FEFF 		bl	HAL_GPIO_Init
 896              	.LVL52:
 379:Core/Src/stm32f1xx_hal_msp.c ****     GPIO_InitStruct.Mode = GPIO_MODE_INPUT;
 897              		.loc 1 379 5 is_stmt 1 view .LVU208
 379:Core/Src/stm32f1xx_hal_msp.c ****     GPIO_InitStruct.Mode = GPIO_MODE_INPUT;
 898              		.loc 1 379 25 is_stmt 0 view .LVU209
 899 005e 4FF48063 		mov	r3, #1024
 900 0062 0493     		str	r3, [sp, #16]
 380:Core/Src/stm32f1xx_hal_msp.c ****     GPIO_InitStruct.Pull = GPIO_NOPULL;
 901              		.loc 1 380 5 is_stmt 1 view .LVU210
 380:Core/Src/stm32f1xx_hal_msp.c ****     GPIO_InitStruct.Pull = GPIO_NOPULL;
 902              		.loc 1 380 26 is_stmt 0 view .LVU211
 903 0064 0023     		movs	r3, #0
 904 0066 0593     		str	r3, [sp, #20]
 381:Core/Src/stm32f1xx_hal_msp.c ****     HAL_GPIO_Init(GPIOA, &GPIO_InitStruct);
 905              		.loc 1 381 5 is_stmt 1 view .LVU212
 381:Core/Src/stm32f1xx_hal_msp.c ****     HAL_GPIO_Init(GPIOA, &GPIO_InitStruct);
 906              		.loc 1 381 26 is_stmt 0 view .LVU213
ARM GAS  /tmp/ccCtzt8r.s 			page 26


 907 0068 0693     		str	r3, [sp, #24]
 382:Core/Src/stm32f1xx_hal_msp.c **** 
 908              		.loc 1 382 5 is_stmt 1 view .LVU214
 909 006a 04A9     		add	r1, sp, #16
 910 006c 2046     		mov	r0, r4
 911 006e FFF7FEFF 		bl	HAL_GPIO_Init
 912              	.LVL53:
 913 0072 D3E7     		b	.L60
 914              	.LVL54:
 915              	.L65:
 394:Core/Src/stm32f1xx_hal_msp.c **** 
 916              		.loc 1 394 5 view .LVU215
 917              	.LBB14:
 394:Core/Src/stm32f1xx_hal_msp.c **** 
 918              		.loc 1 394 5 view .LVU216
 394:Core/Src/stm32f1xx_hal_msp.c **** 
 919              		.loc 1 394 5 view .LVU217
 920 0074 154B     		ldr	r3, .L66+8
 921 0076 DA69     		ldr	r2, [r3, #28]
 922 0078 42F40032 		orr	r2, r2, #131072
 923 007c DA61     		str	r2, [r3, #28]
 394:Core/Src/stm32f1xx_hal_msp.c **** 
 924              		.loc 1 394 5 view .LVU218
 925 007e DA69     		ldr	r2, [r3, #28]
 926 0080 02F40032 		and	r2, r2, #131072
 927 0084 0292     		str	r2, [sp, #8]
 394:Core/Src/stm32f1xx_hal_msp.c **** 
 928              		.loc 1 394 5 view .LVU219
 929 0086 029A     		ldr	r2, [sp, #8]
 930              	.LBE14:
 394:Core/Src/stm32f1xx_hal_msp.c **** 
 931              		.loc 1 394 5 view .LVU220
 396:Core/Src/stm32f1xx_hal_msp.c ****     /**USART2 GPIO Configuration
 932              		.loc 1 396 5 view .LVU221
 933              	.LBB15:
 396:Core/Src/stm32f1xx_hal_msp.c ****     /**USART2 GPIO Configuration
 934              		.loc 1 396 5 view .LVU222
 396:Core/Src/stm32f1xx_hal_msp.c ****     /**USART2 GPIO Configuration
 935              		.loc 1 396 5 view .LVU223
 936 0088 9A69     		ldr	r2, [r3, #24]
 937 008a 42F00402 		orr	r2, r2, #4
 938 008e 9A61     		str	r2, [r3, #24]
 396:Core/Src/stm32f1xx_hal_msp.c ****     /**USART2 GPIO Configuration
 939              		.loc 1 396 5 view .LVU224
 940 0090 9B69     		ldr	r3, [r3, #24]
 941 0092 03F00403 		and	r3, r3, #4
 942 0096 0393     		str	r3, [sp, #12]
 396:Core/Src/stm32f1xx_hal_msp.c ****     /**USART2 GPIO Configuration
 943              		.loc 1 396 5 view .LVU225
 944 0098 039B     		ldr	r3, [sp, #12]
 945              	.LBE15:
 396:Core/Src/stm32f1xx_hal_msp.c ****     /**USART2 GPIO Configuration
 946              		.loc 1 396 5 view .LVU226
 401:Core/Src/stm32f1xx_hal_msp.c ****     GPIO_InitStruct.Mode = GPIO_MODE_AF_PP;
 947              		.loc 1 401 5 view .LVU227
 401:Core/Src/stm32f1xx_hal_msp.c ****     GPIO_InitStruct.Mode = GPIO_MODE_AF_PP;
 948              		.loc 1 401 25 is_stmt 0 view .LVU228
ARM GAS  /tmp/ccCtzt8r.s 			page 27


 949 009a 0423     		movs	r3, #4
 950 009c 0493     		str	r3, [sp, #16]
 402:Core/Src/stm32f1xx_hal_msp.c ****     GPIO_InitStruct.Speed = GPIO_SPEED_FREQ_HIGH;
 951              		.loc 1 402 5 is_stmt 1 view .LVU229
 402:Core/Src/stm32f1xx_hal_msp.c ****     GPIO_InitStruct.Speed = GPIO_SPEED_FREQ_HIGH;
 952              		.loc 1 402 26 is_stmt 0 view .LVU230
 953 009e 0223     		movs	r3, #2
 954 00a0 0593     		str	r3, [sp, #20]
 403:Core/Src/stm32f1xx_hal_msp.c ****     HAL_GPIO_Init(GPIOA, &GPIO_InitStruct);
 955              		.loc 1 403 5 is_stmt 1 view .LVU231
 403:Core/Src/stm32f1xx_hal_msp.c ****     HAL_GPIO_Init(GPIOA, &GPIO_InitStruct);
 956              		.loc 1 403 27 is_stmt 0 view .LVU232
 957 00a2 0323     		movs	r3, #3
 958 00a4 0793     		str	r3, [sp, #28]
 404:Core/Src/stm32f1xx_hal_msp.c **** 
 959              		.loc 1 404 5 is_stmt 1 view .LVU233
 960 00a6 0A4C     		ldr	r4, .L66+12
 961 00a8 04A9     		add	r1, sp, #16
 962 00aa 2046     		mov	r0, r4
 963              	.LVL55:
 404:Core/Src/stm32f1xx_hal_msp.c **** 
 964              		.loc 1 404 5 is_stmt 0 view .LVU234
 965 00ac FFF7FEFF 		bl	HAL_GPIO_Init
 966              	.LVL56:
 406:Core/Src/stm32f1xx_hal_msp.c ****     GPIO_InitStruct.Mode = GPIO_MODE_INPUT;
 967              		.loc 1 406 5 is_stmt 1 view .LVU235
 406:Core/Src/stm32f1xx_hal_msp.c ****     GPIO_InitStruct.Mode = GPIO_MODE_INPUT;
 968              		.loc 1 406 25 is_stmt 0 view .LVU236
 969 00b0 0823     		movs	r3, #8
 970 00b2 0493     		str	r3, [sp, #16]
 407:Core/Src/stm32f1xx_hal_msp.c ****     GPIO_InitStruct.Pull = GPIO_NOPULL;
 971              		.loc 1 407 5 is_stmt 1 view .LVU237
 407:Core/Src/stm32f1xx_hal_msp.c ****     GPIO_InitStruct.Pull = GPIO_NOPULL;
 972              		.loc 1 407 26 is_stmt 0 view .LVU238
 973 00b4 0023     		movs	r3, #0
 974 00b6 0593     		str	r3, [sp, #20]
 408:Core/Src/stm32f1xx_hal_msp.c ****     HAL_GPIO_Init(GPIOA, &GPIO_InitStruct);
 975              		.loc 1 408 5 is_stmt 1 view .LVU239
 408:Core/Src/stm32f1xx_hal_msp.c ****     HAL_GPIO_Init(GPIOA, &GPIO_InitStruct);
 976              		.loc 1 408 26 is_stmt 0 view .LVU240
 977 00b8 0693     		str	r3, [sp, #24]
 409:Core/Src/stm32f1xx_hal_msp.c **** 
 978              		.loc 1 409 5 is_stmt 1 view .LVU241
 979 00ba 04A9     		add	r1, sp, #16
 980 00bc 2046     		mov	r0, r4
 981 00be FFF7FEFF 		bl	HAL_GPIO_Init
 982              	.LVL57:
 983              		.loc 1 416 1 is_stmt 0 view .LVU242
 984 00c2 ABE7     		b	.L60
 985              	.L67:
 986              		.align	2
 987              	.L66:
 988 00c4 00380140 		.word	1073821696
 989 00c8 00440040 		.word	1073759232
 990 00cc 00100240 		.word	1073876992
 991 00d0 00080140 		.word	1073809408
 992              		.cfi_endproc
ARM GAS  /tmp/ccCtzt8r.s 			page 28


 993              	.LFE74:
 995              		.section	.text.HAL_UART_MspDeInit,"ax",%progbits
 996              		.align	1
 997              		.global	HAL_UART_MspDeInit
 998              		.syntax unified
 999              		.thumb
 1000              		.thumb_func
 1001              		.fpu softvfp
 1003              	HAL_UART_MspDeInit:
 1004              	.LVL58:
 1005              	.LFB75:
 417:Core/Src/stm32f1xx_hal_msp.c **** 
 418:Core/Src/stm32f1xx_hal_msp.c **** /**
 419:Core/Src/stm32f1xx_hal_msp.c **** * @brief UART MSP De-Initialization
 420:Core/Src/stm32f1xx_hal_msp.c **** * This function freeze the hardware resources used in this example
 421:Core/Src/stm32f1xx_hal_msp.c **** * @param huart: UART handle pointer
 422:Core/Src/stm32f1xx_hal_msp.c **** * @retval None
 423:Core/Src/stm32f1xx_hal_msp.c **** */
 424:Core/Src/stm32f1xx_hal_msp.c **** void HAL_UART_MspDeInit(UART_HandleTypeDef* huart)
 425:Core/Src/stm32f1xx_hal_msp.c **** {
 1006              		.loc 1 425 1 is_stmt 1 view -0
 1007              		.cfi_startproc
 1008              		@ args = 0, pretend = 0, frame = 0
 1009              		@ frame_needed = 0, uses_anonymous_args = 0
 1010              		.loc 1 425 1 is_stmt 0 view .LVU244
 1011 0000 08B5     		push	{r3, lr}
 1012              	.LCFI26:
 1013              		.cfi_def_cfa_offset 8
 1014              		.cfi_offset 3, -8
 1015              		.cfi_offset 14, -4
 426:Core/Src/stm32f1xx_hal_msp.c ****   if(huart->Instance==USART1)
 1016              		.loc 1 426 3 is_stmt 1 view .LVU245
 1017              		.loc 1 426 11 is_stmt 0 view .LVU246
 1018 0002 0368     		ldr	r3, [r0]
 1019              		.loc 1 426 5 view .LVU247
 1020 0004 0E4A     		ldr	r2, .L74
 1021 0006 9342     		cmp	r3, r2
 1022 0008 03D0     		beq	.L72
 427:Core/Src/stm32f1xx_hal_msp.c ****   {
 428:Core/Src/stm32f1xx_hal_msp.c ****   /* USER CODE BEGIN USART1_MspDeInit 0 */
 429:Core/Src/stm32f1xx_hal_msp.c **** 
 430:Core/Src/stm32f1xx_hal_msp.c ****   /* USER CODE END USART1_MspDeInit 0 */
 431:Core/Src/stm32f1xx_hal_msp.c ****     /* Peripheral clock disable */
 432:Core/Src/stm32f1xx_hal_msp.c ****     __HAL_RCC_USART1_CLK_DISABLE();
 433:Core/Src/stm32f1xx_hal_msp.c **** 
 434:Core/Src/stm32f1xx_hal_msp.c ****     /**USART1 GPIO Configuration
 435:Core/Src/stm32f1xx_hal_msp.c ****     PA9     ------> USART1_TX
 436:Core/Src/stm32f1xx_hal_msp.c ****     PA10     ------> USART1_RX
 437:Core/Src/stm32f1xx_hal_msp.c ****     */
 438:Core/Src/stm32f1xx_hal_msp.c ****     HAL_GPIO_DeInit(GPIOA, GPIO_PIN_9|GPIO_PIN_10);
 439:Core/Src/stm32f1xx_hal_msp.c **** 
 440:Core/Src/stm32f1xx_hal_msp.c ****   /* USER CODE BEGIN USART1_MspDeInit 1 */
 441:Core/Src/stm32f1xx_hal_msp.c **** 
 442:Core/Src/stm32f1xx_hal_msp.c ****   /* USER CODE END USART1_MspDeInit 1 */
 443:Core/Src/stm32f1xx_hal_msp.c ****   }
 444:Core/Src/stm32f1xx_hal_msp.c ****   else if(huart->Instance==USART2)
 1023              		.loc 1 444 8 is_stmt 1 view .LVU248
ARM GAS  /tmp/ccCtzt8r.s 			page 29


 1024              		.loc 1 444 10 is_stmt 0 view .LVU249
 1025 000a 0E4A     		ldr	r2, .L74+4
 1026 000c 9342     		cmp	r3, r2
 1027 000e 0CD0     		beq	.L73
 1028              	.LVL59:
 1029              	.L68:
 445:Core/Src/stm32f1xx_hal_msp.c ****   {
 446:Core/Src/stm32f1xx_hal_msp.c ****   /* USER CODE BEGIN USART2_MspDeInit 0 */
 447:Core/Src/stm32f1xx_hal_msp.c **** 
 448:Core/Src/stm32f1xx_hal_msp.c ****   /* USER CODE END USART2_MspDeInit 0 */
 449:Core/Src/stm32f1xx_hal_msp.c ****     /* Peripheral clock disable */
 450:Core/Src/stm32f1xx_hal_msp.c ****     __HAL_RCC_USART2_CLK_DISABLE();
 451:Core/Src/stm32f1xx_hal_msp.c **** 
 452:Core/Src/stm32f1xx_hal_msp.c ****     /**USART2 GPIO Configuration
 453:Core/Src/stm32f1xx_hal_msp.c ****     PA2     ------> USART2_TX
 454:Core/Src/stm32f1xx_hal_msp.c ****     PA3     ------> USART2_RX
 455:Core/Src/stm32f1xx_hal_msp.c ****     */
 456:Core/Src/stm32f1xx_hal_msp.c ****     HAL_GPIO_DeInit(GPIOA, GPIO_PIN_2|GPIO_PIN_3);
 457:Core/Src/stm32f1xx_hal_msp.c **** 
 458:Core/Src/stm32f1xx_hal_msp.c ****   /* USER CODE BEGIN USART2_MspDeInit 1 */
 459:Core/Src/stm32f1xx_hal_msp.c **** 
 460:Core/Src/stm32f1xx_hal_msp.c ****   /* USER CODE END USART2_MspDeInit 1 */
 461:Core/Src/stm32f1xx_hal_msp.c ****   }
 462:Core/Src/stm32f1xx_hal_msp.c **** 
 463:Core/Src/stm32f1xx_hal_msp.c **** }
 1030              		.loc 1 463 1 view .LVU250
 1031 0010 08BD     		pop	{r3, pc}
 1032              	.LVL60:
 1033              	.L72:
 432:Core/Src/stm32f1xx_hal_msp.c **** 
 1034              		.loc 1 432 5 is_stmt 1 view .LVU251
 1035 0012 02F55842 		add	r2, r2, #55296
 1036 0016 9369     		ldr	r3, [r2, #24]
 1037 0018 23F48043 		bic	r3, r3, #16384
 1038 001c 9361     		str	r3, [r2, #24]
 438:Core/Src/stm32f1xx_hal_msp.c **** 
 1039              		.loc 1 438 5 view .LVU252
 1040 001e 4FF4C061 		mov	r1, #1536
 1041 0022 0948     		ldr	r0, .L74+8
 1042              	.LVL61:
 438:Core/Src/stm32f1xx_hal_msp.c **** 
 1043              		.loc 1 438 5 is_stmt 0 view .LVU253
 1044 0024 FFF7FEFF 		bl	HAL_GPIO_DeInit
 1045              	.LVL62:
 1046 0028 F2E7     		b	.L68
 1047              	.LVL63:
 1048              	.L73:
 450:Core/Src/stm32f1xx_hal_msp.c **** 
 1049              		.loc 1 450 5 is_stmt 1 view .LVU254
 1050 002a 02F5E632 		add	r2, r2, #117760
 1051 002e D369     		ldr	r3, [r2, #28]
 1052 0030 23F40033 		bic	r3, r3, #131072
 1053 0034 D361     		str	r3, [r2, #28]
 456:Core/Src/stm32f1xx_hal_msp.c **** 
 1054              		.loc 1 456 5 view .LVU255
 1055 0036 0C21     		movs	r1, #12
 1056 0038 0348     		ldr	r0, .L74+8
ARM GAS  /tmp/ccCtzt8r.s 			page 30


 1057              	.LVL64:
 456:Core/Src/stm32f1xx_hal_msp.c **** 
 1058              		.loc 1 456 5 is_stmt 0 view .LVU256
 1059 003a FFF7FEFF 		bl	HAL_GPIO_DeInit
 1060              	.LVL65:
 1061              		.loc 1 463 1 view .LVU257
 1062 003e E7E7     		b	.L68
 1063              	.L75:
 1064              		.align	2
 1065              	.L74:
 1066 0040 00380140 		.word	1073821696
 1067 0044 00440040 		.word	1073759232
 1068 0048 00080140 		.word	1073809408
 1069              		.cfi_endproc
 1070              	.LFE75:
 1072              		.text
 1073              	.Letext0:
 1074              		.file 2 "/usr/lib/gcc/arm-none-eabi/10.3.1/include/stdint.h"
 1075              		.file 3 "Drivers/CMSIS/Device/ST/STM32F1xx/Include/stm32f103xb.h"
 1076              		.file 4 "Drivers/CMSIS/Device/ST/STM32F1xx/Include/stm32f1xx.h"
 1077              		.file 5 "Drivers/STM32F1xx_HAL_Driver/Inc/stm32f1xx_hal_def.h"
 1078              		.file 6 "Drivers/STM32F1xx_HAL_Driver/Inc/stm32f1xx_hal_gpio.h"
 1079              		.file 7 "Drivers/STM32F1xx_HAL_Driver/Inc/stm32f1xx_hal_dma.h"
 1080              		.file 8 "Drivers/STM32F1xx_HAL_Driver/Inc/stm32f1xx_hal_adc.h"
 1081              		.file 9 "Drivers/STM32F1xx_HAL_Driver/Inc/stm32f1xx_hal_i2c.h"
 1082              		.file 10 "Drivers/STM32F1xx_HAL_Driver/Inc/stm32f1xx_hal_spi.h"
 1083              		.file 11 "Drivers/STM32F1xx_HAL_Driver/Inc/stm32f1xx_hal_tim.h"
 1084              		.file 12 "Drivers/STM32F1xx_HAL_Driver/Inc/stm32f1xx_hal_uart.h"
 1085              		.file 13 "Drivers/STM32F1xx_HAL_Driver/Inc/stm32f1xx_hal_cortex.h"
ARM GAS  /tmp/ccCtzt8r.s 			page 31

